Module: C:\Dev1\DOS\Zet\rtl\src\ZetBios\zetbios_a.asm
GROUP: 'DGROUP' _TEXT,_DATA

File contains no line numbers.
Segment: _TEXT WORD USE16 00000000 bytes

Routine Size: 0 bytes,    Routine Base: _TEXT + 0000

No disassembly errors

Segment: _DATA WORD USE16 00000000 bytes

File contains no line numbers.
Segment: _BIOSSEG PARA USE16 00002000 bytes
0000                          L$1:
0000    7A 65 74 62 69 6F 73 20 31 2E 30 00 00 00 00    zetbios 1.0....
000F    00 00                     add         byte ptr [bx+si],al 
0011    00 00                     add         byte ptr [bx+si],al 
0013    00 00                     add         byte ptr [bx+si],al 
0015    00 00                     add         byte ptr [bx+si],al 
0017    00 00                     add         byte ptr [bx+si],al 
0019    00 00                     add         byte ptr [bx+si],al 
001B    00 00                     add         byte ptr [bx+si],al 
001D    00 00                     add         byte ptr [bx+si],al 
001F    00 00                     add         byte ptr [bx+si],al 
0021    00 00                     add         byte ptr [bx+si],al 
0023    00 00                     add         byte ptr [bx+si],al 
0025    00 00                     add         byte ptr [bx+si],al 
0027    00 00                     add         byte ptr [bx+si],al 
0029    00 00                     add         byte ptr [bx+si],al 
002B    00 00                     add         byte ptr [bx+si],al 
002D    00 00                     add         byte ptr [bx+si],al 
002F    00 00                     add         byte ptr [bx+si],al 
0031    00 00                     add         byte ptr [bx+si],al 
0033    00 00                     add         byte ptr [bx+si],al 
0035    00 00                     add         byte ptr [bx+si],al 
0037    00 00                     add         byte ptr [bx+si],al 
0039    00 00                     add         byte ptr [bx+si],al 
003B    00 00                     add         byte ptr [bx+si],al 
003D    00 00                     add         byte ptr [bx+si],al 
003F    00 00                     add         byte ptr [bx+si],al 
0041    00 00                     add         byte ptr [bx+si],al 
0043    00 00                     add         byte ptr [bx+si],al 
0045    00 00                     add         byte ptr [bx+si],al 
0047    00 00                     add         byte ptr [bx+si],al 
0049    00 00                     add         byte ptr [bx+si],al 
004B    00 00                     add         byte ptr [bx+si],al 
004D    00 00                     add         byte ptr [bx+si],al 
004F    00 00                     add         byte ptr [bx+si],al 
0051    00 00                     add         byte ptr [bx+si],al 
0053    00 00                     add         byte ptr [bx+si],al 
0055    00 00                     add         byte ptr [bx+si],al 
0057    00 00                     add         byte ptr [bx+si],al 
0059    00 00                     add         byte ptr [bx+si],al 
005B                          L$2:
005B    33 C0                     xor         ax,ax 
005D    FA                        cli         
005E    BA 00 F2                  mov         dx,0xf200 
0061    B8 07 00                  mov         ax,0x0007 
0064    EF                        out         dx,ax 
0065    BA 02 F2                  mov         dx,0xf202 
0068    B8 0B 40                  mov         ax,0x400b 
006B    EF                        out         dx,ax 
006C    B8 0D 00                  mov         ax,0x000d 
006F    EF                        out         dx,ax 
0070    B8 0D 00                  mov         ax,0x000d 
0073    EF                        out         dx,ax 
0074    B8 3F 02                  mov         ax,0x023f 
0077    EF                        out         dx,ax 
0078    B9 32 00                  mov         cx,0x0032 
007B                          L$3:
007B    E2 FE                     loop        L$3 
007D    BA 00 F2                  mov         dx,0xf200 
0080    B8 04 00                  mov         ax,0x0004 
0083    EF                        out         dx,ax 
0084    B8 FE FF                  mov         ax,0xfffe 
0087    8B E0                     mov         sp,ax 
0089    33 C0                     xor         ax,ax 
008B    8E D8                     mov         ds,ax 
008D    8E D0                     mov         ss,ax 
008F    8E C0                     mov         es,ax 
0091    B9 80 00                  mov         cx,0x0080 
0094    BF 00 04                  mov         di,0x0400 
0097    FC                        cld         
0098    F3 AB                     rep stosw   
009A    33 DB                     xor         bx,bx 
009C    B9 00 01                  mov         cx,0x0100 
009F    B8 53 1F                  mov         ax,offset L$53 
00A2    BA 00 F0                  mov         dx,0xf000 
00A5                          L$4:
00A5    89 07                     mov         word ptr [bx],ax 
00A7    83 C3 02                  add         bx,0x0002 
00AA    89 17                     mov         word ptr [bx],dx 
00AC    83 C3 02                  add         bx,0x0002 
00AF    E2 F4                     loop        L$4 
00B1    B8 00 00                  mov         ax,0x0000 
00B4    A3 E4 01                  mov         word ptr ds:[0x1e4],ax 
00B7    B8 00 00                  mov         ax,0x0000 
00BA    A3 E6 01                  mov         word ptr ds:[0x1e6],ax 
00BD    B8 7F 02                  mov         ax,0x027f 
00C0    A3 13 04                  mov         word ptr ds:[0x413],ax 
00C3    B8 E6 01                  mov         ax,offset L$5 
00C6    A3 60 00                  mov         word ptr ds:[0x60],ax 
00C9    B8 00 F0                  mov         ax,0xf000 
00CC    A3 62 00                  mov         word ptr ds:[0x62],ax 
00CF    B8 F2 06                  mov         ax,offset L$26 
00D2    A3 64 00                  mov         word ptr ds:[0x64],ax 
00D5    B8 00 F0                  mov         ax,0xf000 
00D8    A3 66 00                  mov         word ptr ds:[0x66],ax 
00DB    B8 87 1E                  mov         ax,offset L$47 
00DE    A3 70 00                  mov         word ptr ds:[0x70],ax 
00E1    B8 00 F0                  mov         ax,0xf000 
00E4    A3 72 00                  mov         word ptr ds:[0x72],ax 
00E7    B8 4D 18                  mov         ax,offset L$41 
00EA    A3 44 00                  mov         word ptr ds:[0x44],ax 
00ED    B8 00 F0                  mov         ax,0xf000 
00F0    A3 46 00                  mov         word ptr ds:[0x46],ax 
00F3    B8 41 18                  mov         ax,offset L$40 
00F6    A3 48 00                  mov         word ptr ds:[0x48],ax 
00F9    B8 00 F0                  mov         ax,0xf000 
00FC    A3 4A 00                  mov         word ptr ds:[0x4a],ax 
00FF    B8 C0 9F                  mov         ax,0x9fc0 
0102    8E D8                     mov         ds,ax 
0104    C6 06 00 00 01            mov         byte ptr ds:[0x0],0x01 
0109    C6 06 27 00 00            mov         byte ptr ds:[0x27],0x00 
010E    33 C0                     xor         ax,ax 
0110    8E D8                     mov         ds,ax 
0112    C7 06 0E 04 C0 9F         mov         word ptr ds:[0x40e],0x9fc0 
0118    B8 A5 1E                  mov         ax,offset L$48 
011B    A3 20 00                  mov         word ptr ds:[0x20],ax 
011E    B8 00 F0                  mov         ax,0xf000 
0121    A3 22 00                  mov         word ptr ds:[0x22],ax 
0124    B8 87 09                  mov         ax,offset L$35 
0127    A3 24 00                  mov         word ptr ds:[0x24],ax 
012A    B8 00 F0                  mov         ax,0xf000 
012D    A3 26 00                  mov         word ptr ds:[0x26],ax 
0130    B8 2E 08                  mov         ax,offset L$27 
0133    A3 58 00                  mov         word ptr ds:[0x58],ax 
0136    B8 00 F0                  mov         ax,0xf000 
0139    A3 5A 00                  mov         word ptr ds:[0x5a],ax 
013C    B8 59 18                  mov         ax,offset L$42 
013F    A3 54 00                  mov         word ptr ds:[0x54],ax 
0142    B8 00 F0                  mov         ax,0xf000 
0145    A3 56 00                  mov         word ptr ds:[0x56],ax 
0148    B8 95 08                  mov         ax,offset L$33 
014B    A3 D0 01                  mov         word ptr ds:[0x1d0],ax 
014E    B8 00 F0                  mov         ax,0xf000 
0151    A3 D2 01                  mov         word ptr ds:[0x1d2],ax 
0154    B8 90 08                  mov         ax,offset L$32 
0157    A3 2C 00                  mov         word ptr ds:[0x2c],ax 
015A    B8 00 F0                  mov         ax,0xf000 
015D    A3 2E 00                  mov         word ptr ds:[0x2e],ax 
0160    33 C0                     xor         ax,ax 
0162    8E D8                     mov         ds,ax 
0164    A2 17 04                  mov         byte ptr ds:[0x417],al 
0167    A2 18 04                  mov         byte ptr ds:[0x418],al 
016A    A2 19 04                  mov         byte ptr ds:[0x419],al 
016D    A2 71 04                  mov         byte ptr ds:[0x471],al 
0170    A2 97 04                  mov         byte ptr ds:[0x497],al 
0173    B0 10                     mov         al,0x10 
0175    A2 96 04                  mov         byte ptr ds:[0x496],al 
0178    BB 1E 00                  mov         bx,0x001e 
017B    89 1E 1A 04               mov         word ptr ds:[0x41a],bx 
017F    89 1E 1C 04               mov         word ptr ds:[0x41c],bx 
0183    BB 1E 00                  mov         bx,0x001e 
0186    89 1E 80 04               mov         word ptr ds:[0x480],bx 
018A    BB 3E 00                  mov         bx,0x003e 
018D    89 1E 82 04               mov         word ptr ds:[0x482],bx 
0191    BB F8 03                  mov         bx,0x03f8 
0194    89 1E 00 04               mov         word ptr ds:[0x400],bx 
0198    BB F8 02                  mov         bx,0x02f8 
019B    89 1E 02 04               mov         word ptr ds:[0x402],bx 
019F    B8 25 02                  mov         ax,0x0225 
01A2    A3 10 04                  mov         word ptr ds:[0x410],ax 
01A5    B8 6E 1E                  mov         ax,offset L$46 
01A8    A3 68 00                  mov         word ptr ds:[0x68],ax 
01AB    B8 00 F0                  mov         ax,0xf000 
01AE    A3 6A 00                  mov         word ptr ds:[0x6a],ax 
01B1    B8 65 10                  mov         ax,offset L$39 
01B4    A3 40 00                  mov         word ptr ds:[0x40],ax 
01B7    B8 00 F0                  mov         ax,0xf000 
01BA    A3 42 00                  mov         word ptr ds:[0x42],ax 
01BD    B9 00 C0                  mov         cx,0xc000 
01C0    B8 80 C7                  mov         ax,0xc780 
01C3    E8 1F 01                  call        L$14 
01C6    E8 00 00                  call        _print_bios_banner 
01C9    E8 00 00                  call        _MakeRamdisk 
01CC    E8 41 00                  call        L$7 
01CF    E8 00 00                  call        _init_boot_vectors 
01D2    B9 00 C8                  mov         cx,0xc800 
01D5    B8 00 E0                  mov         ax,0xe000 
01D8    E8 0A 01                  call        L$14 
01DB    FB                        sti         
01DC    CD 19                     int         0x19 
01DE    00 00 00 00 00 00 00 00                         ........
01E6                          L$5:
01E6    B8 FE FF                  mov         ax,0xfffe 
01E9    8B E0                     mov         sp,ax 
01EB    33 C0                     xor         ax,ax 
01ED    8E D0                     mov         ss,ax 
01EF    BB F0 9F                  mov         bx,0x9ff0 
01F2    8E DB                     mov         ds,bx 
01F4    8B 1E 82 00               mov         bx,word ptr ds:[0x82] 
01F8    43                        inc         bx 
01F9    A1 80 00                  mov         ax,word ptr ds:[0x80] 
01FC    3B C3                     cmp         ax,bx 
01FE    7F 04                     jg          L$6 
0200    E8 00 00                  call        _boot_halt 
0203    F4                        hlt         
0204                          L$6:
0204    33 C0                     xor         ax,ax 
0206    89 1E 82 00               mov         word ptr ds:[0x82],bx 
020A    8E D8                     mov         ds,ax 
020C    53                        push        bx 
020D    E9 DC 04                  jmp         L$25 
0210                          L$7:
0210    33 C0                     xor         ax,ax 
0212    8E D8                     mov         ds,ax 
0214    A2 74 04                  mov         byte ptr ds:[0x474],al 
0217    A2 77 04                  mov         byte ptr ds:[0x477],al 
021A    A2 8C 04                  mov         byte ptr ds:[0x48c],al 
021D    A2 8D 04                  mov         byte ptr ds:[0x48d],al 
0220    A2 8E 04                  mov         byte ptr ds:[0x48e],al 
0223    B0 01                     mov         al,0x01 
0225    A2 75 04                  mov         byte ptr ds:[0x475],al 
0228    B0 C0                     mov         al,0xc0 
022A    A2 76 04                  mov         byte ptr ds:[0x476],al 
022D    B8 FE 03                  mov         ax,offset L$22 
0230    A3 4C 00                  mov         word ptr ds:[0x4c],ax 
0233    B8 00 F0                  mov         ax,0xf000 
0236    A3 4E 00                  mov         word ptr ds:[0x4e],ax 
0239    B8 B1 02                  mov         ax,offset L$11 
023C    A3 D8 01                  mov         word ptr ds:[0x1d8],ax 
023F    B8 00 F0                  mov         ax,0xf000 
0242    A3 DA 01                  mov         word ptr ds:[0x1da],ax 
0245    B0 FF                     mov         al,0xff 
0247    BA 00 01                  mov         dx,0x0100 
024A    B9 0A 00                  mov         cx,0x000a 
024D                          L$8:
024D    EE                        out         dx,al 
024E    E2 FD                     loop        L$8 
0250    B8 40 00                  mov         ax,0x0040 
0253    EF                        out         dx,ax 
0254    32 C0                     xor         al,al 
0256    EE                        out         dx,al 
0257    EE                        out         dx,al 
0258    EE                        out         dx,al 
0259    EE                        out         dx,al 
025A    B0 95                     mov         al,0x95 
025C    EE                        out         dx,al 
025D    B0 FF                     mov         al,0xff 
025F    EE                        out         dx,al 
0260    EC                        in          al,dx 
0261    8A C8                     mov         cl,al 
0263    B8 FF FF                  mov         ax,0xffff 
0266    EF                        out         dx,ax 
0267    80 F9 01                  cmp         cl,0x01 
026A    74 06                     je          L$9 
026C    B0 01                     mov         al,0x01 
026E    A2 8D 04                  mov         byte ptr ds:[0x48d],al 
0271    C3                        ret         
0272                          L$9:
0272    B8 41 00                  mov         ax,0x0041 
0275    EF                        out         dx,ax 
0276    32 C0                     xor         al,al 
0278    EE                        out         dx,al 
0279    EE                        out         dx,al 
027A    EE                        out         dx,al 
027B    EE                        out         dx,al 
027C    B0 FF                     mov         al,0xff 
027E    EE                        out         dx,al 
027F    EE                        out         dx,al 
0280    EC                        in          al,dx 
0281    8A C8                     mov         cl,al 
0283    B8 FF FF                  mov         ax,0xffff 
0286    EF                        out         dx,ax 
0287    F6 C1 FF                  test        cl,0xff 
028A    75 E6                     jne         L$9 
028C    B8 50 00                  mov         ax,0x0050 
028F    EF                        out         dx,ax 
0290    32 C0                     xor         al,al 
0292    EE                        out         dx,al 
0293    EE                        out         dx,al 
0294    B0 02                     mov         al,0x02 
0296    EE                        out         dx,al 
0297    32 C0                     xor         al,al 
0299    EE                        out         dx,al 
029A    B0 FF                     mov         al,0xff 
029C    EE                        out         dx,al 
029D    EE                        out         dx,al 
029E    EC                        in          al,dx 
029F    8A C8                     mov         cl,al 
02A1    B8 FF FF                  mov         ax,0xffff 
02A4    EF                        out         dx,ax 
02A5    F6 C1 FF                  test        cl,0xff 
02A8    74 06                     je          L$10 
02AA    B0 02                     mov         al,0x02 
02AC    A2 8D 04                  mov         byte ptr ds:[0x48d],al 
02AF    C3                        ret         
02B0                          L$10:
02B0    C3                        ret         
02B1                          L$11:
02B1    50                        push        ax 
02B2    1E                        push        ds 
02B3    B8 40 00                  mov         ax,0x0040 
02B6    8E D8                     mov         ds,ax 
02B8    C6 06 8E 00 FF            mov         byte ptr ds:[0x8e],0xff 
02BD    1F                        pop         ds 
02BE    58                        pop         ax 
02BF    CF                        iret        
02C0                          L$12:
02C0    50                        push        ax 
02C1    53                        push        bx 
02C2    51                        push        cx 
02C3    33 C0                     xor         ax,ax 
02C5    33 DB                     xor         bx,bx 
02C7    33 C9                     xor         cx,cx 
02C9    8A 2E 02 00               mov         ch,byte ptr ds:[0x2] 
02CD    D1 E1                     shl         cx,0x01 
02CF                          L$13:
02CF    02 07                     add         al,byte ptr [bx] 
02D1    43                        inc         bx 
02D2    E2 FB                     loop        L$13 
02D4    24 FF                     and         al,0xff 
02D6    59                        pop         cx 
02D7    5B                        pop         bx 
02D8    58                        pop         ax 
02D9    C3                        ret         
02DA    89 C0                     mov         ax,ax 
02DC    89 C0                     mov         ax,ax 
02DE    89 C0                     mov         ax,ax 
02E0    00 24 50 6E 50                                  .$PnP
02E5                          L$14:
02E5    50                        push        ax 
02E6    8E D9                     mov         ds,cx 
02E8    B8 04 00                  mov         ax,0x0004 
02EB    81 3E 00 00 55 AA         cmp         word ptr ds:[0x0],0xaa55 
02F1    74 03                     je          L$15 
02F3    E9 89 00                  jmp         L$20 
02F6                          L$15:
02F6    E8 C7 FF                  call        L$12 
02F9    74 03                     je          L$16 
02FB    E9 81 00                  jmp         L$20 
02FE                          L$16:
02FE    A0 02 00                  mov         al,byte ptr ds:[0x2] 
0301    A8 03                     test        al,0x03 
0303    74 04                     je          L$17 
0305    24 FC                     and         al,0xfc 
0307    04 04                     add         al,0x04 
0309                          L$17:
0309    33 DB                     xor         bx,bx 
030B    8E DB                     mov         ds,bx 
030D    50                        push        ax 
030E    57                        push        di 
030F    51                        push        cx 
0310    B8 03 00                  mov         ax,0x0003 
0313    50                        push        ax 
0314    B8 00 F0                  mov         ax,0xf000 
0317    8E C0                     mov         es,ax 
0319    8D 3E E1 E2               lea         di,L$1+0xe2e1 
031D    8B EC                     mov         bp,sp 
031F    FF 5E 00                  call        dword ptr [bp] 
0322    FA                        cli         
0323    83 C4 02                  add         sp,0x0002 
0326    59                        pop         cx 
0327    8E D9                     mov         ds,cx 
0329    8B 1E 1A 00               mov         bx,word ptr ds:[0x1a] 
032D    8B 07                     mov         ax,word ptr [bx] 
032F    3D 24 50                  cmp         ax,0x5024 
0332    75 49                     jne         L$19 
0334    8B 47 02                  mov         ax,word ptr 0x2[bx] 
0337    3D 6E 50                  cmp         ax,0x506e 
033A    75 41                     jne         L$19 
033C    8B 47 1A                  mov         ax,word ptr 0x1a[bx] 
033F    83 F8 00                  cmp         ax,0x0000 
0342    74 39                     je          L$19 
0344    8B 7F 10                  mov         di,word ptr 0x10[bx] 
0347    BB F0 9F                  mov         bx,0x9ff0 
034A    8E DB                     mov         ds,bx 
034C    8B 1E 80 00               mov         bx,word ptr ds:[0x80] 
0350    83 FB 08                  cmp         bx,0x0008 
0353    74 28                     je          L$19 
0355    51                        push        cx 
0356    B9 04 00                  mov         cx,0x0004 
0359    D3 E3                     shl         bx,cl 
035B    59                        pop         cx 
035C    C7 07 80 00               mov         word ptr [bx],0x0080 
0360    89 4F 06                  mov         word ptr 0x6[bx],cx 
0363    89 47 04                  mov         word ptr 0x4[bx],ax 
0366    83 FF 00                  cmp         di,0x0000 
0369    74 06                     je          L$18 
036B    89 4F 0A                  mov         word ptr 0xa[bx],cx 
036E    89 7F 08                  mov         word ptr 0x8[bx],di 
0371                          L$18:
0371    51                        push        cx 
0372    B9 04 00                  mov         cx,0x0004 
0375    D3 EB                     shr         bx,cl 
0377    59                        pop         cx 
0378    43                        inc         bx 
0379    89 1E 80 00               mov         word ptr ds:[0x80],bx 
037D                          L$19:
037D    5F                        pop         di 
037E    58                        pop         ax 
037F                          L$20:
037F    51                        push        cx 
0380    B9 05 00                  mov         cx,0x0005 
0383    D3 E0                     shl         ax,cl 
0385    59                        pop         cx 
0386    03 C8                     add         cx,ax 
0388    58                        pop         ax 
0389    3B C8                     cmp         cx,ax 
038B    77 03                     ja          L$21 
038D    E9 55 FF                  jmp         L$14 
0390                          L$21:
0390    33 C0                     xor         ax,ax 
0392    8E D8                     mov         ds,ax 
0394    C3                        ret         
0395    00 00                     add         byte ptr [bx+si],al 
0397    00 00                     add         byte ptr [bx+si],al 
0399    00 00                     add         byte ptr [bx+si],al 
039B    00 00                     add         byte ptr [bx+si],al 
039D    00 00                     add         byte ptr [bx+si],al 
039F    00 00                     add         byte ptr [bx+si],al 
03A1    00 00                     add         byte ptr [bx+si],al 
03A3    00 00                     add         byte ptr [bx+si],al 
03A5    00 00                     add         byte ptr [bx+si],al 
03A7    00 00                     add         byte ptr [bx+si],al 
03A9    00 00                     add         byte ptr [bx+si],al 
03AB    00 00                     add         byte ptr [bx+si],al 
03AD    00 00                     add         byte ptr [bx+si],al 
03AF    00 00                     add         byte ptr [bx+si],al 
03B1    00 00                     add         byte ptr [bx+si],al 
03B3    00 00                     add         byte ptr [bx+si],al 
03B5    00 00                     add         byte ptr [bx+si],al 
03B7    00 00                     add         byte ptr [bx+si],al 
03B9    00 00                     add         byte ptr [bx+si],al 
03BB    00 00                     add         byte ptr [bx+si],al 
03BD    00 00                     add         byte ptr [bx+si],al 
03BF    00 00                     add         byte ptr [bx+si],al 
03C1    00 00                     add         byte ptr [bx+si],al 
03C3    00 00                     add         byte ptr [bx+si],al 
03C5    00 00                     add         byte ptr [bx+si],al 
03C7    00 00                     add         byte ptr [bx+si],al 
03C9    00 00                     add         byte ptr [bx+si],al 
03CB    00 00                     add         byte ptr [bx+si],al 
03CD    00 00                     add         byte ptr [bx+si],al 
03CF    00 00                     add         byte ptr [bx+si],al 
03D1    00 00                     add         byte ptr [bx+si],al 
03D3    00 00                     add         byte ptr [bx+si],al 
03D5    00 00                     add         byte ptr [bx+si],al 
03D7    00 00                     add         byte ptr [bx+si],al 
03D9    00 00                     add         byte ptr [bx+si],al 
03DB    00 00                     add         byte ptr [bx+si],al 
03DD    00 00                     add         byte ptr [bx+si],al 
03DF    00 00                     add         byte ptr [bx+si],al 
03E1    00 00                     add         byte ptr [bx+si],al 
03E3    00 00                     add         byte ptr [bx+si],al 
03E5    00 00                     add         byte ptr [bx+si],al 
03E7    00 00                     add         byte ptr [bx+si],al 
03E9    00 00                     add         byte ptr [bx+si],al 
03EB    00 00                     add         byte ptr [bx+si],al 
03ED    00 00                     add         byte ptr [bx+si],al 
03EF    00 00                     add         byte ptr [bx+si],al 
03F1    00 00                     add         byte ptr [bx+si],al 
03F3    00 00                     add         byte ptr [bx+si],al 
03F5    00 00                     add         byte ptr [bx+si],al 
03F7    00 00                     add         byte ptr [bx+si],al 
03F9    00 00                     add         byte ptr [bx+si],al 
03FB    00 00                     add         byte ptr [bx+si],al 
03FD    00                                              .
03FE                          L$22:
03FE    50                        push        ax 
03FF    51                        push        cx 
0400    52                        push        dx 
0401    53                        push        bx 
0402    55                        push        bp 
0403    56                        push        si 
0404    57                        push        di 
0405    06                        push        es 
0406    1E                        push        ds 
0407    16                        push        ss 
0408    1F                        pop         ds 
0409    F6 C2 80                  test        dl,0x80 
040C    75 05                     jne         L$23 
040E    E8 00 00                  call        _int13_diskette_function 
0411    EB 03                     jmp         L$24 
0413                          L$23:
0413    E8 00 00                  call        _int13_harddisk 
0416                          L$24:
0416    1F                        pop         ds 
0417    07                        pop         es 
0418    5F                        pop         di 
0419    5E                        pop         si 
041A    5D                        pop         bp 
041B    5B                        pop         bx 
041C    5A                        pop         dx 
041D    59                        pop         cx 
041E    58                        pop         ax 
041F    CF                        iret        
0420    00 00                     add         byte ptr [bx+si],al 
0422    00 00                     add         byte ptr [bx+si],al 
0424    00 00                     add         byte ptr [bx+si],al 
0426    00 00                     add         byte ptr [bx+si],al 
0428    00 00                     add         byte ptr [bx+si],al 
042A    00 00                     add         byte ptr [bx+si],al 
042C    00 00                     add         byte ptr [bx+si],al 
042E    00 00                     add         byte ptr [bx+si],al 
0430    00 00                     add         byte ptr [bx+si],al 
0432    00 00                     add         byte ptr [bx+si],al 
0434    00 00                     add         byte ptr [bx+si],al 
0436    00 00                     add         byte ptr [bx+si],al 
0438    00 00                     add         byte ptr [bx+si],al 
043A    00 00                     add         byte ptr [bx+si],al 
043C    00 00                     add         byte ptr [bx+si],al 
043E    00 00                     add         byte ptr [bx+si],al 
0440    00 00                     add         byte ptr [bx+si],al 
0442    00 00                     add         byte ptr [bx+si],al 
0444    00 00                     add         byte ptr [bx+si],al 
0446    00 00                     add         byte ptr [bx+si],al 
0448    00 00                     add         byte ptr [bx+si],al 
044A    00 00                     add         byte ptr [bx+si],al 
044C    00 00                     add         byte ptr [bx+si],al 
044E    00 00                     add         byte ptr [bx+si],al 
0450    00 00                     add         byte ptr [bx+si],al 
0452    00 00                     add         byte ptr [bx+si],al 
0454    00 00                     add         byte ptr [bx+si],al 
0456    00 00                     add         byte ptr [bx+si],al 
0458    00 00                     add         byte ptr [bx+si],al 
045A    00 00                     add         byte ptr [bx+si],al 
045C    00 00                     add         byte ptr [bx+si],al 
045E    00 00                     add         byte ptr [bx+si],al 
0460    00 00                     add         byte ptr [bx+si],al 
0462    00 00                     add         byte ptr [bx+si],al 
0464    00 00                     add         byte ptr [bx+si],al 
0466    00 00                     add         byte ptr [bx+si],al 
0468    00 00                     add         byte ptr [bx+si],al 
046A    00 00                     add         byte ptr [bx+si],al 
046C    00 00                     add         byte ptr [bx+si],al 
046E    00 00                     add         byte ptr [bx+si],al 
0470    00 00                     add         byte ptr [bx+si],al 
0472    00 00                     add         byte ptr [bx+si],al 
0474    00 00                     add         byte ptr [bx+si],al 
0476    00 00                     add         byte ptr [bx+si],al 
0478    00 00                     add         byte ptr [bx+si],al 
047A    00 00                     add         byte ptr [bx+si],al 
047C    00 00                     add         byte ptr [bx+si],al 
047E    00 00                     add         byte ptr [bx+si],al 
0480    00 00                     add         byte ptr [bx+si],al 
0482    00 00                     add         byte ptr [bx+si],al 
0484    00 00                     add         byte ptr [bx+si],al 
0486    00 00                     add         byte ptr [bx+si],al 
0488    00 00                     add         byte ptr [bx+si],al 
048A    00 00                     add         byte ptr [bx+si],al 
048C    00 00                     add         byte ptr [bx+si],al 
048E    00 00                     add         byte ptr [bx+si],al 
0490    00 00                     add         byte ptr [bx+si],al 
0492    00 00                     add         byte ptr [bx+si],al 
0494    00 00                     add         byte ptr [bx+si],al 
0496    00 00                     add         byte ptr [bx+si],al 
0498    00 00                     add         byte ptr [bx+si],al 
049A    00 00                     add         byte ptr [bx+si],al 
049C    00 00                     add         byte ptr [bx+si],al 
049E    00 00                     add         byte ptr [bx+si],al 
04A0    00 00                     add         byte ptr [bx+si],al 
04A2    00 00                     add         byte ptr [bx+si],al 
04A4    00 00                     add         byte ptr [bx+si],al 
04A6    00 00                     add         byte ptr [bx+si],al 
04A8    00 00                     add         byte ptr [bx+si],al 
04AA    00 00                     add         byte ptr [bx+si],al 
04AC    00 00                     add         byte ptr [bx+si],al 
04AE    00 00                     add         byte ptr [bx+si],al 
04B0    00 00                     add         byte ptr [bx+si],al 
04B2    00 00                     add         byte ptr [bx+si],al 
04B4    00 00                     add         byte ptr [bx+si],al 
04B6    00 00                     add         byte ptr [bx+si],al 
04B8    00 00                     add         byte ptr [bx+si],al 
04BA    00 00                     add         byte ptr [bx+si],al 
04BC    00 00                     add         byte ptr [bx+si],al 
04BE    00 00                     add         byte ptr [bx+si],al 
04C0    00 00                     add         byte ptr [bx+si],al 
04C2    00 00                     add         byte ptr [bx+si],al 
04C4    00 00                     add         byte ptr [bx+si],al 
04C6    00 00                     add         byte ptr [bx+si],al 
04C8    00 00                     add         byte ptr [bx+si],al 
04CA    00 00                     add         byte ptr [bx+si],al 
04CC    00 00                     add         byte ptr [bx+si],al 
04CE    00 00                     add         byte ptr [bx+si],al 
04D0    00 00                     add         byte ptr [bx+si],al 
04D2    00 00                     add         byte ptr [bx+si],al 
04D4    00 00                     add         byte ptr [bx+si],al 
04D6    00 00                     add         byte ptr [bx+si],al 
04D8    00 00                     add         byte ptr [bx+si],al 
04DA    00 00                     add         byte ptr [bx+si],al 
04DC    00 00                     add         byte ptr [bx+si],al 
04DE    00 00                     add         byte ptr [bx+si],al 
04E0    00 00                     add         byte ptr [bx+si],al 
04E2    00 00                     add         byte ptr [bx+si],al 
04E4    00 00                     add         byte ptr [bx+si],al 
04E6    00 00                     add         byte ptr [bx+si],al 
04E8    00 00                     add         byte ptr [bx+si],al 
04EA    00 00                     add         byte ptr [bx+si],al 
04EC    00 00                     add         byte ptr [bx+si],al 
04EE    00 00                     add         byte ptr [bx+si],al 
04F0    00 00                     add         byte ptr [bx+si],al 
04F2    00 00                     add         byte ptr [bx+si],al 
04F4    00 00                     add         byte ptr [bx+si],al 
04F6    00 00                     add         byte ptr [bx+si],al 
04F8    00 00                     add         byte ptr [bx+si],al 
04FA    00 00                     add         byte ptr [bx+si],al 
04FC    00 00                     add         byte ptr [bx+si],al 
04FE    00 00                     add         byte ptr [bx+si],al 
0500    00 00                     add         byte ptr [bx+si],al 
0502    00 00                     add         byte ptr [bx+si],al 
0504    00 00                     add         byte ptr [bx+si],al 
0506    00 00                     add         byte ptr [bx+si],al 
0508    00 00                     add         byte ptr [bx+si],al 
050A    00 00                     add         byte ptr [bx+si],al 
050C    00 00                     add         byte ptr [bx+si],al 
050E    00 00                     add         byte ptr [bx+si],al 
0510    00 00                     add         byte ptr [bx+si],al 
0512    00 00                     add         byte ptr [bx+si],al 
0514    00 00                     add         byte ptr [bx+si],al 
0516    00 00                     add         byte ptr [bx+si],al 
0518    00 00                     add         byte ptr [bx+si],al 
051A    00 00                     add         byte ptr [bx+si],al 
051C    00 00                     add         byte ptr [bx+si],al 
051E    00 00                     add         byte ptr [bx+si],al 
0520    00 00                     add         byte ptr [bx+si],al 
0522    00 00                     add         byte ptr [bx+si],al 
0524    00 00                     add         byte ptr [bx+si],al 
0526    00 00                     add         byte ptr [bx+si],al 
0528    00 00                     add         byte ptr [bx+si],al 
052A    00 00                     add         byte ptr [bx+si],al 
052C    00 00                     add         byte ptr [bx+si],al 
052E    00 00                     add         byte ptr [bx+si],al 
0530    00 00                     add         byte ptr [bx+si],al 
0532    00 00                     add         byte ptr [bx+si],al 
0534    00 00                     add         byte ptr [bx+si],al 
0536    00 00                     add         byte ptr [bx+si],al 
0538    00 00                     add         byte ptr [bx+si],al 
053A    00 00                     add         byte ptr [bx+si],al 
053C    00 00                     add         byte ptr [bx+si],al 
053E    00 00                     add         byte ptr [bx+si],al 
0540    00 00                     add         byte ptr [bx+si],al 
0542    00 00                     add         byte ptr [bx+si],al 
0544    00 00                     add         byte ptr [bx+si],al 
0546    00 00                     add         byte ptr [bx+si],al 
0548    00 00                     add         byte ptr [bx+si],al 
054A    00 00                     add         byte ptr [bx+si],al 
054C    00 00                     add         byte ptr [bx+si],al 
054E    00 00                     add         byte ptr [bx+si],al 
0550    00 00                     add         byte ptr [bx+si],al 
0552    00 00                     add         byte ptr [bx+si],al 
0554    00 00                     add         byte ptr [bx+si],al 
0556    00 00                     add         byte ptr [bx+si],al 
0558    00 00                     add         byte ptr [bx+si],al 
055A    00 00                     add         byte ptr [bx+si],al 
055C    00 00                     add         byte ptr [bx+si],al 
055E    00 00                     add         byte ptr [bx+si],al 
0560    00 00                     add         byte ptr [bx+si],al 
0562    00 00                     add         byte ptr [bx+si],al 
0564    00 00                     add         byte ptr [bx+si],al 
0566    00 00                     add         byte ptr [bx+si],al 
0568    00 00                     add         byte ptr [bx+si],al 
056A    00 00                     add         byte ptr [bx+si],al 
056C    00 00                     add         byte ptr [bx+si],al 
056E    00 00                     add         byte ptr [bx+si],al 
0570    00 00                     add         byte ptr [bx+si],al 
0572    00 00                     add         byte ptr [bx+si],al 
0574    00 00                     add         byte ptr [bx+si],al 
0576    00 00                     add         byte ptr [bx+si],al 
0578    00 00                     add         byte ptr [bx+si],al 
057A    00 00                     add         byte ptr [bx+si],al 
057C    00 00                     add         byte ptr [bx+si],al 
057E    00 00                     add         byte ptr [bx+si],al 
0580    00 00                     add         byte ptr [bx+si],al 
0582    00 00                     add         byte ptr [bx+si],al 
0584    00 00                     add         byte ptr [bx+si],al 
0586    00 00                     add         byte ptr [bx+si],al 
0588    00 00                     add         byte ptr [bx+si],al 
058A    00 00                     add         byte ptr [bx+si],al 
058C    00 00                     add         byte ptr [bx+si],al 
058E    00 00                     add         byte ptr [bx+si],al 
0590    00 00                     add         byte ptr [bx+si],al 
0592    00 00                     add         byte ptr [bx+si],al 
0594    00 00                     add         byte ptr [bx+si],al 
0596    00 00                     add         byte ptr [bx+si],al 
0598    00 00                     add         byte ptr [bx+si],al 
059A    00 00                     add         byte ptr [bx+si],al 
059C    00 00                     add         byte ptr [bx+si],al 
059E    00 00                     add         byte ptr [bx+si],al 
05A0    00 00                     add         byte ptr [bx+si],al 
05A2    00 00                     add         byte ptr [bx+si],al 
05A4    00 00                     add         byte ptr [bx+si],al 
05A6    00 00                     add         byte ptr [bx+si],al 
05A8    00 00                     add         byte ptr [bx+si],al 
05AA    00 00                     add         byte ptr [bx+si],al 
05AC    00 00                     add         byte ptr [bx+si],al 
05AE    00 00                     add         byte ptr [bx+si],al 
05B0    00 00                     add         byte ptr [bx+si],al 
05B2    00 00                     add         byte ptr [bx+si],al 
05B4    00 00                     add         byte ptr [bx+si],al 
05B6    00 00                     add         byte ptr [bx+si],al 
05B8    00 00                     add         byte ptr [bx+si],al 
05BA    00 00                     add         byte ptr [bx+si],al 
05BC    00 00                     add         byte ptr [bx+si],al 
05BE    00 00                     add         byte ptr [bx+si],al 
05C0    00 00                     add         byte ptr [bx+si],al 
05C2    00 00                     add         byte ptr [bx+si],al 
05C4    00 00                     add         byte ptr [bx+si],al 
05C6    00 00                     add         byte ptr [bx+si],al 
05C8    00 00                     add         byte ptr [bx+si],al 
05CA    00 00                     add         byte ptr [bx+si],al 
05CC    00 00                     add         byte ptr [bx+si],al 
05CE    00 00                     add         byte ptr [bx+si],al 
05D0    00 00                     add         byte ptr [bx+si],al 
05D2    00 00                     add         byte ptr [bx+si],al 
05D4    00 00                     add         byte ptr [bx+si],al 
05D6    00 00                     add         byte ptr [bx+si],al 
05D8    00 00                     add         byte ptr [bx+si],al 
05DA    00 00                     add         byte ptr [bx+si],al 
05DC    00 00                     add         byte ptr [bx+si],al 
05DE    00 00                     add         byte ptr [bx+si],al 
05E0    00 00                     add         byte ptr [bx+si],al 
05E2    00 00                     add         byte ptr [bx+si],al 
05E4    00 00                     add         byte ptr [bx+si],al 
05E6    00 00                     add         byte ptr [bx+si],al 
05E8    00 00                     add         byte ptr [bx+si],al 
05EA    00 00                     add         byte ptr [bx+si],al 
05EC    00 00                     add         byte ptr [bx+si],al 
05EE    00 00                     add         byte ptr [bx+si],al 
05F0    00 00                     add         byte ptr [bx+si],al 
05F2    00 00                     add         byte ptr [bx+si],al 
05F4    00 00                     add         byte ptr [bx+si],al 
05F6    00 00                     add         byte ptr [bx+si],al 
05F8    00 00                     add         byte ptr [bx+si],al 
05FA    00 00                     add         byte ptr [bx+si],al 
05FC    00 00                     add         byte ptr [bx+si],al 
05FE    00 00                     add         byte ptr [bx+si],al 
0600    00 00                     add         byte ptr [bx+si],al 
0602    00 00                     add         byte ptr [bx+si],al 
0604    00 00                     add         byte ptr [bx+si],al 
0606    00 00                     add         byte ptr [bx+si],al 
0608    00 00                     add         byte ptr [bx+si],al 
060A    00 00                     add         byte ptr [bx+si],al 
060C    00 00                     add         byte ptr [bx+si],al 
060E    00 00                     add         byte ptr [bx+si],al 
0610    00 00                     add         byte ptr [bx+si],al 
0612    00 00                     add         byte ptr [bx+si],al 
0614    00 00                     add         byte ptr [bx+si],al 
0616    00 00                     add         byte ptr [bx+si],al 
0618    00 00                     add         byte ptr [bx+si],al 
061A    00 00                     add         byte ptr [bx+si],al 
061C    00 00                     add         byte ptr [bx+si],al 
061E    00 00                     add         byte ptr [bx+si],al 
0620    00 00                     add         byte ptr [bx+si],al 
0622    00 00                     add         byte ptr [bx+si],al 
0624    00 00                     add         byte ptr [bx+si],al 
0626    00 00                     add         byte ptr [bx+si],al 
0628    00 00                     add         byte ptr [bx+si],al 
062A    00 00                     add         byte ptr [bx+si],al 
062C    00 00                     add         byte ptr [bx+si],al 
062E    00 00                     add         byte ptr [bx+si],al 
0630    00 00                     add         byte ptr [bx+si],al 
0632    00 00                     add         byte ptr [bx+si],al 
0634    00 00                     add         byte ptr [bx+si],al 
0636    00 00                     add         byte ptr [bx+si],al 
0638    00 00                     add         byte ptr [bx+si],al 
063A    00 00                     add         byte ptr [bx+si],al 
063C    00 00                     add         byte ptr [bx+si],al 
063E    00 00                     add         byte ptr [bx+si],al 
0640    00 00                     add         byte ptr [bx+si],al 
0642    00 00                     add         byte ptr [bx+si],al 
0644    00 00                     add         byte ptr [bx+si],al 
0646    00 00                     add         byte ptr [bx+si],al 
0648    00 00                     add         byte ptr [bx+si],al 
064A    00 00                     add         byte ptr [bx+si],al 
064C    00 00                     add         byte ptr [bx+si],al 
064E    00 00                     add         byte ptr [bx+si],al 
0650    00 00                     add         byte ptr [bx+si],al 
0652    00 00                     add         byte ptr [bx+si],al 
0654    00 00                     add         byte ptr [bx+si],al 
0656    00 00                     add         byte ptr [bx+si],al 
0658    00 00                     add         byte ptr [bx+si],al 
065A    00 00                     add         byte ptr [bx+si],al 
065C    00 00                     add         byte ptr [bx+si],al 
065E    00 00                     add         byte ptr [bx+si],al 
0660    00 00                     add         byte ptr [bx+si],al 
0662    00 00                     add         byte ptr [bx+si],al 
0664    00 00                     add         byte ptr [bx+si],al 
0666    00 00                     add         byte ptr [bx+si],al 
0668    00 00                     add         byte ptr [bx+si],al 
066A    00 00                     add         byte ptr [bx+si],al 
066C    00 00                     add         byte ptr [bx+si],al 
066E    00 00                     add         byte ptr [bx+si],al 
0670    00 00                     add         byte ptr [bx+si],al 
0672    00 00                     add         byte ptr [bx+si],al 
0674    00 00                     add         byte ptr [bx+si],al 
0676    00 00                     add         byte ptr [bx+si],al 
0678    00 00                     add         byte ptr [bx+si],al 
067A    00 00                     add         byte ptr [bx+si],al 
067C    00 00                     add         byte ptr [bx+si],al 
067E    00 00                     add         byte ptr [bx+si],al 
0680    00 00                     add         byte ptr [bx+si],al 
0682    00 00                     add         byte ptr [bx+si],al 
0684    00 00                     add         byte ptr [bx+si],al 
0686    00 00                     add         byte ptr [bx+si],al 
0688    00 00                     add         byte ptr [bx+si],al 
068A    00 00                     add         byte ptr [bx+si],al 
068C    00 00                     add         byte ptr [bx+si],al 
068E    00 00                     add         byte ptr [bx+si],al 
0690    00 00                     add         byte ptr [bx+si],al 
0692    00 00                     add         byte ptr [bx+si],al 
0694    00 00                     add         byte ptr [bx+si],al 
0696    00 00                     add         byte ptr [bx+si],al 
0698    00 00                     add         byte ptr [bx+si],al 
069A    00 00                     add         byte ptr [bx+si],al 
069C    00 00                     add         byte ptr [bx+si],al 
069E    00 00                     add         byte ptr [bx+si],al 
06A0    00 00                     add         byte ptr [bx+si],al 
06A2    00 00                     add         byte ptr [bx+si],al 
06A4    00 00                     add         byte ptr [bx+si],al 
06A6    00 00                     add         byte ptr [bx+si],al 
06A8    00 00                     add         byte ptr [bx+si],al 
06AA    00 00                     add         byte ptr [bx+si],al 
06AC    00 00                     add         byte ptr [bx+si],al 
06AE    00 00                     add         byte ptr [bx+si],al 
06B0    00 00                     add         byte ptr [bx+si],al 
06B2    00 00                     add         byte ptr [bx+si],al 
06B4    00 00                     add         byte ptr [bx+si],al 
06B6    00 00                     add         byte ptr [bx+si],al 
06B8    00 00                     add         byte ptr [bx+si],al 
06BA    00 00                     add         byte ptr [bx+si],al 
06BC    00 00                     add         byte ptr [bx+si],al 
06BE    00 00                     add         byte ptr [bx+si],al 
06C0    00 00                     add         byte ptr [bx+si],al 
06C2    00 00                     add         byte ptr [bx+si],al 
06C4    00 00                     add         byte ptr [bx+si],al 
06C6    00 00                     add         byte ptr [bx+si],al 
06C8    00 00                     add         byte ptr [bx+si],al 
06CA    00 00                     add         byte ptr [bx+si],al 
06CC    00 00                     add         byte ptr [bx+si],al 
06CE    00 00                     add         byte ptr [bx+si],al 
06D0    00 00                     add         byte ptr [bx+si],al 
06D2    00 00                     add         byte ptr [bx+si],al 
06D4    00 00                     add         byte ptr [bx+si],al 
06D6    00 00                     add         byte ptr [bx+si],al 
06D8    00 00                     add         byte ptr [bx+si],al 
06DA    00 00                     add         byte ptr [bx+si],al 
06DC    00 00                     add         byte ptr [bx+si],al 
06DE    00 00                     add         byte ptr [bx+si],al 
06E0    55                        push        bp 
06E1    8B EC                     mov         bp,sp 
06E3    B8 FE FF                  mov         ax,0xfffe 
06E6    8B E0                     mov         sp,ax 
06E8    33 C0                     xor         ax,ax 
06EA    8E D0                     mov         ss,ax 
06EC                          L$25:
06EC    E8 00 00                  call        _int19_function 
06EF    CD 18                     int         0x18 
06F1    00                                              .
06F2                          L$26:
06F2    EB EC                     jmp         0x000006e0 
06F4    00 08                     add         byte ptr [bx+si],cl 
06F6    00 FC 00 01 04 40 00 00 00                      .....@...
06FF    00 00                     add         byte ptr [bx+si],al 
0701    00 00                     add         byte ptr [bx+si],al 
0703    00 00                     add         byte ptr [bx+si],al 
0705    00 00                     add         byte ptr [bx+si],al 
0707    00 00                     add         byte ptr [bx+si],al 
0709    00 00                     add         byte ptr [bx+si],al 
070B    00 00                     add         byte ptr [bx+si],al 
070D    00 00                     add         byte ptr [bx+si],al 
070F    00 00                     add         byte ptr [bx+si],al 
0711    00 00                     add         byte ptr [bx+si],al 
0713    00 00                     add         byte ptr [bx+si],al 
0715    00 00                     add         byte ptr [bx+si],al 
0717    00 00                     add         byte ptr [bx+si],al 
0719    00 00                     add         byte ptr [bx+si],al 
071B    00 00                     add         byte ptr [bx+si],al 
071D    00 00                     add         byte ptr [bx+si],al 
071F    00 00                     add         byte ptr [bx+si],al 
0721    00 00                     add         byte ptr [bx+si],al 
0723    00 00                     add         byte ptr [bx+si],al 
0725    00 00                     add         byte ptr [bx+si],al 
0727    00 00                     add         byte ptr [bx+si],al 
0729    FB                        sti         
072A    1E                        push        ds 
072B    50                        push        ax 
072C    52                        push        dx 
072D    33 C0                     xor         ax,ax 
072F    8E D8                     mov         ds,ax 
0731    E8 00 00                  call        _int14_function 
0734    5A                        pop         dx 
0735    58                        pop         ax 
0736    1F                        pop         ds 
0737    FA                        cli         
0738    CF                        iret        
0739    17 04 00 03 80 01 C0 00 60 00 30 00 18 00 0C 00 ........`.0.....
0749    00 00                     add         byte ptr [bx+si],al 
074B    00 00                     add         byte ptr [bx+si],al 
074D    00 00                     add         byte ptr [bx+si],al 
074F    00 00                     add         byte ptr [bx+si],al 
0751    00 00                     add         byte ptr [bx+si],al 
0753    00 00                     add         byte ptr [bx+si],al 
0755    00 00                     add         byte ptr [bx+si],al 
0757    00 00                     add         byte ptr [bx+si],al 
0759    00 00                     add         byte ptr [bx+si],al 
075B    00 00                     add         byte ptr [bx+si],al 
075D    00 00                     add         byte ptr [bx+si],al 
075F    00 00                     add         byte ptr [bx+si],al 
0761    00 00                     add         byte ptr [bx+si],al 
0763    00 00                     add         byte ptr [bx+si],al 
0765    00 00                     add         byte ptr [bx+si],al 
0767    00 00                     add         byte ptr [bx+si],al 
0769    00 00                     add         byte ptr [bx+si],al 
076B    00 00                     add         byte ptr [bx+si],al 
076D    00 00                     add         byte ptr [bx+si],al 
076F    00 00                     add         byte ptr [bx+si],al 
0771    00 00                     add         byte ptr [bx+si],al 
0773    00 00                     add         byte ptr [bx+si],al 
0775    00 00                     add         byte ptr [bx+si],al 
0777    00 00                     add         byte ptr [bx+si],al 
0779    00 00                     add         byte ptr [bx+si],al 
077B    00 00                     add         byte ptr [bx+si],al 
077D    00 00                     add         byte ptr [bx+si],al 
077F    00 00                     add         byte ptr [bx+si],al 
0781    00 00                     add         byte ptr [bx+si],al 
0783    00 00                     add         byte ptr [bx+si],al 
0785    00 00                     add         byte ptr [bx+si],al 
0787    00 00                     add         byte ptr [bx+si],al 
0789    00 00                     add         byte ptr [bx+si],al 
078B    00 00                     add         byte ptr [bx+si],al 
078D    00 00                     add         byte ptr [bx+si],al 
078F    00 00                     add         byte ptr [bx+si],al 
0791    00 00                     add         byte ptr [bx+si],al 
0793    00 00                     add         byte ptr [bx+si],al 
0795    00 00                     add         byte ptr [bx+si],al 
0797    00 00                     add         byte ptr [bx+si],al 
0799    00 00                     add         byte ptr [bx+si],al 
079B    00 00                     add         byte ptr [bx+si],al 
079D    00 00                     add         byte ptr [bx+si],al 
079F    00 00                     add         byte ptr [bx+si],al 
07A1    00 00                     add         byte ptr [bx+si],al 
07A3    00 00                     add         byte ptr [bx+si],al 
07A5    00 00                     add         byte ptr [bx+si],al 
07A7    00 00                     add         byte ptr [bx+si],al 
07A9    00 00                     add         byte ptr [bx+si],al 
07AB    00 00                     add         byte ptr [bx+si],al 
07AD    00 00                     add         byte ptr [bx+si],al 
07AF    00 00                     add         byte ptr [bx+si],al 
07B1    00 00                     add         byte ptr [bx+si],al 
07B3    00 00                     add         byte ptr [bx+si],al 
07B5    00 00                     add         byte ptr [bx+si],al 
07B7    00 00                     add         byte ptr [bx+si],al 
07B9    00 00                     add         byte ptr [bx+si],al 
07BB    00 00                     add         byte ptr [bx+si],al 
07BD    00 00                     add         byte ptr [bx+si],al 
07BF    00 00                     add         byte ptr [bx+si],al 
07C1    00 00                     add         byte ptr [bx+si],al 
07C3    00 00                     add         byte ptr [bx+si],al 
07C5    00 00                     add         byte ptr [bx+si],al 
07C7    00 00                     add         byte ptr [bx+si],al 
07C9    00 00                     add         byte ptr [bx+si],al 
07CB    00 00                     add         byte ptr [bx+si],al 
07CD    00 00                     add         byte ptr [bx+si],al 
07CF    00 00                     add         byte ptr [bx+si],al 
07D1    00 00                     add         byte ptr [bx+si],al 
07D3    00 00                     add         byte ptr [bx+si],al 
07D5    00 00                     add         byte ptr [bx+si],al 
07D7    00 00                     add         byte ptr [bx+si],al 
07D9    00 00                     add         byte ptr [bx+si],al 
07DB    00 00                     add         byte ptr [bx+si],al 
07DD    00 00                     add         byte ptr [bx+si],al 
07DF    00 00                     add         byte ptr [bx+si],al 
07E1    00 00                     add         byte ptr [bx+si],al 
07E3    00 00                     add         byte ptr [bx+si],al 
07E5    00 00                     add         byte ptr [bx+si],al 
07E7    00 00                     add         byte ptr [bx+si],al 
07E9    00 00                     add         byte ptr [bx+si],al 
07EB    00 00                     add         byte ptr [bx+si],al 
07ED    00 00                     add         byte ptr [bx+si],al 
07EF    00 00                     add         byte ptr [bx+si],al 
07F1    00 00                     add         byte ptr [bx+si],al 
07F3    00 00                     add         byte ptr [bx+si],al 
07F5    00 00                     add         byte ptr [bx+si],al 
07F7    00 00                     add         byte ptr [bx+si],al 
07F9    00 00                     add         byte ptr [bx+si],al 
07FB    00 00                     add         byte ptr [bx+si],al 
07FD    00 00                     add         byte ptr [bx+si],al 
07FF    00 00                     add         byte ptr [bx+si],al 
0801    00 00                     add         byte ptr [bx+si],al 
0803    00 00                     add         byte ptr [bx+si],al 
0805    00 00                     add         byte ptr [bx+si],al 
0807    00 00                     add         byte ptr [bx+si],al 
0809    00 00                     add         byte ptr [bx+si],al 
080B    00 00                     add         byte ptr [bx+si],al 
080D    00 00                     add         byte ptr [bx+si],al 
080F    00 00                     add         byte ptr [bx+si],al 
0811    00 00                     add         byte ptr [bx+si],al 
0813    00 00                     add         byte ptr [bx+si],al 
0815    00 00                     add         byte ptr [bx+si],al 
0817    00 00                     add         byte ptr [bx+si],al 
0819    00 00                     add         byte ptr [bx+si],al 
081B    00 00                     add         byte ptr [bx+si],al 
081D    00 00                     add         byte ptr [bx+si],al 
081F    00 00                     add         byte ptr [bx+si],al 
0821    00 00                     add         byte ptr [bx+si],al 
0823    00 00                     add         byte ptr [bx+si],al 
0825    00 00                     add         byte ptr [bx+si],al 
0827    00 00                     add         byte ptr [bx+si],al 
0829    00 00                     add         byte ptr [bx+si],al 
082B    00 00                     add         byte ptr [bx+si],al 
082D    00                                              .
082E                          L$27:
082E    FB                        sti         
082F    1E                        push        ds 
0830    52                        push        dx 
0831    53                        push        bx 
0832    55                        push        bp 
0833    56                        push        si 
0834    57                        push        di 
0835    80 FC 00                  cmp         ah,0x00 
0838    74 2D                     je          L$29 
083A    80 FC 10                  cmp         ah,0x10 
083D    74 28                     je          L$29 
083F    BB 00 F0                  mov         bx,0xf000 
0842    8E DB                     mov         ds,bx 
0844    9C                        pushf       
0845    51                        push        cx 
0846    50                        push        ax 
0847    E8 00 00                  call        _int16_function 
084A    58                        pop         ax 
084B    59                        pop         cx 
084C    9D                        popf        
084D    5F                        pop         di 
084E    5E                        pop         si 
084F    5D                        pop         bp 
0850    5B                        pop         bx 
0851    5A                        pop         dx 
0852    1F                        pop         ds 
0853    74 09                     je          L$28 
0855    55                        push        bp 
0856    8B EC                     mov         bp,sp 
0858    80 66 06 BF               and         byte ptr 0x6[bp],0xbf 
085C    5D                        pop         bp 
085D    CF                        iret        
085E                          L$28:
085E    55                        push        bp 
085F    8B EC                     mov         bp,sp 
0861    80 4E 06 40               or          byte ptr 0x6[bp],0x40 
0865    5D                        pop         bp 
0866    CF                        iret        
0867                          L$29:
0867    BB 40 00                  mov         bx,0x0040 
086A    8E DB                     mov         ds,bx 
086C                          L$30:
086C    FA                        cli         
086D    8B 1E 1A 00               mov         bx,word ptr ds:[0x1a] 
0871    3B 1E 1C 00               cmp         bx,word ptr ds:[0x1c] 
0875    75 04                     jne         L$31 
0877    FB                        sti         
0878    90                        nop         
0879    EB F1                     jmp         L$30 
087B                          L$31:
087B    BB 00 F0                  mov         bx,0xf000 
087E    8E DB                     mov         ds,bx 
0880    9C                        pushf       
0881    51                        push        cx 
0882    50                        push        ax 
0883    E8 00 00                  call        _int16_function 
0886    58                        pop         ax 
0887    59                        pop         cx 
0888    9D                        popf        
0889    5F                        pop         di 
088A    5E                        pop         si 
088B    5D                        pop         bp 
088C    5B                        pop         bx 
088D    5A                        pop         dx 
088E    1F                        pop         ds 
088F    CF                        iret        
0890                          L$32:
0890    FB                        sti         
0891    FA                        cli         
0892    CD 74                     int         0x74 
0894    CF                        iret        
0895                          L$33:
0895    FB                        sti         
0896    50                        push        ax 
0897    51                        push        cx 
0898    52                        push        dx 
0899    53                        push        bx 
089A    55                        push        bp 
089B    56                        push        si 
089C    57                        push        di 
089D    1E                        push        ds 
089E    33 C0                     xor         ax,ax 
08A0    8E D8                     mov         ds,ax 
08A2    A1 0E 04                  mov         ax,word ptr ds:[0x40e] 
08A5    8E D8                     mov         ds,ax 
08A7    BA 60 00                  mov         dx,0x0060 
08AA    EC                        in          al,dx 
08AB    8A 1E 26 00               mov         bl,byte ptr ds:[0x26] 
08AF    8A D3                     mov         dl,bl 
08B1    83 E3 07                  and         bx,0x0007 
08B4    88 47 28                  mov         byte ptr 0x28[bx],al 
08B7    FE C2                     inc         dl 
08B9    88 16 26 00               mov         byte ptr ds:[0x26],dl 
08BD    FE C3                     inc         bl 
08BF    8A 0E 27 00               mov         cl,byte ptr ds:[0x27] 
08C3    80 E1 07                  and         cl,0x07 
08C6    3A CB                     cmp         cl,bl 
08C8    7F 27                     jg          L$34 
08CA    32 DB                     xor         bl,bl 
08CC    88 1E 26 00               mov         byte ptr ds:[0x26],bl 
08D0    8A 0E 27 00               mov         cl,byte ptr ds:[0x27] 
08D4    80 E1 80                  and         cl,0x80 
08D7    74 18                     je          L$34 
08D9    33 C0                     xor         ax,ax 
08DB    A0 28 00                  mov         al,byte ptr ds:[0x28] 
08DE    50                        push        ax 
08DF    A0 29 00                  mov         al,byte ptr ds:[0x29] 
08E2    50                        push        ax 
08E3    A0 2A 00                  mov         al,byte ptr ds:[0x2a] 
08E6    50                        push        ax 
08E7    33 C0                     xor         ax,ax 
08E9    50                        push        ax 
08EA    FF 1E 22 00               call        dword ptr ds:[0x22] 
08EE    83 C4 08                  add         sp,0x0008 
08F1                          L$34:
08F1    1F                        pop         ds 
08F2    5F                        pop         di 
08F3    5E                        pop         si 
08F4    5D                        pop         bp 
08F5    5B                        pop         bx 
08F6    5A                        pop         dx 
08F7    59                        pop         cx 
08F8    58                        pop         ax 
08F9    FA                        cli         
08FA    CF                        iret        
08FB    00 00                     add         byte ptr [bx+si],al 
08FD    00 00                     add         byte ptr [bx+si],al 
08FF    00 00                     add         byte ptr [bx+si],al 
0901    00 00                     add         byte ptr [bx+si],al 
0903    00 00                     add         byte ptr [bx+si],al 
0905    00 00                     add         byte ptr [bx+si],al 
0907    00 00                     add         byte ptr [bx+si],al 
0909    00 00                     add         byte ptr [bx+si],al 
090B    00 00                     add         byte ptr [bx+si],al 
090D    00 00                     add         byte ptr [bx+si],al 
090F    00 00                     add         byte ptr [bx+si],al 
0911    00 00                     add         byte ptr [bx+si],al 
0913    00 00                     add         byte ptr [bx+si],al 
0915    00 00                     add         byte ptr [bx+si],al 
0917    00 00                     add         byte ptr [bx+si],al 
0919    00 00                     add         byte ptr [bx+si],al 
091B    00 00                     add         byte ptr [bx+si],al 
091D    00 00                     add         byte ptr [bx+si],al 
091F    00 00                     add         byte ptr [bx+si],al 
0921    00 00                     add         byte ptr [bx+si],al 
0923    00 00                     add         byte ptr [bx+si],al 
0925    00 00                     add         byte ptr [bx+si],al 
0927    00 00                     add         byte ptr [bx+si],al 
0929    00 00                     add         byte ptr [bx+si],al 
092B    00 00                     add         byte ptr [bx+si],al 
092D    00 00                     add         byte ptr [bx+si],al 
092F    00 00                     add         byte ptr [bx+si],al 
0931    00 00                     add         byte ptr [bx+si],al 
0933    00 00                     add         byte ptr [bx+si],al 
0935    00 00                     add         byte ptr [bx+si],al 
0937    00 00                     add         byte ptr [bx+si],al 
0939    00 00                     add         byte ptr [bx+si],al 
093B    00 00                     add         byte ptr [bx+si],al 
093D    00 00                     add         byte ptr [bx+si],al 
093F    00 00                     add         byte ptr [bx+si],al 
0941    00 00                     add         byte ptr [bx+si],al 
0943    00 00                     add         byte ptr [bx+si],al 
0945    00 00                     add         byte ptr [bx+si],al 
0947    00 00                     add         byte ptr [bx+si],al 
0949    00 00                     add         byte ptr [bx+si],al 
094B    00 00                     add         byte ptr [bx+si],al 
094D    00 00                     add         byte ptr [bx+si],al 
094F    00 00                     add         byte ptr [bx+si],al 
0951    00 00                     add         byte ptr [bx+si],al 
0953    00 00                     add         byte ptr [bx+si],al 
0955    00 00                     add         byte ptr [bx+si],al 
0957    00 00                     add         byte ptr [bx+si],al 
0959    00 00                     add         byte ptr [bx+si],al 
095B    00 00                     add         byte ptr [bx+si],al 
095D    00 00                     add         byte ptr [bx+si],al 
095F    00 00                     add         byte ptr [bx+si],al 
0961    00 00                     add         byte ptr [bx+si],al 
0963    00 00                     add         byte ptr [bx+si],al 
0965    00 00                     add         byte ptr [bx+si],al 
0967    00 00                     add         byte ptr [bx+si],al 
0969    00 00                     add         byte ptr [bx+si],al 
096B    00 00                     add         byte ptr [bx+si],al 
096D    00 00                     add         byte ptr [bx+si],al 
096F    00 00                     add         byte ptr [bx+si],al 
0971    00 00                     add         byte ptr [bx+si],al 
0973    00 00                     add         byte ptr [bx+si],al 
0975    00 00                     add         byte ptr [bx+si],al 
0977    00 00                     add         byte ptr [bx+si],al 
0979    00 00                     add         byte ptr [bx+si],al 
097B    00 00                     add         byte ptr [bx+si],al 
097D    00 00                     add         byte ptr [bx+si],al 
097F    00 00                     add         byte ptr [bx+si],al 
0981    00 00                     add         byte ptr [bx+si],al 
0983    00 00                     add         byte ptr [bx+si],al 
0985    00 00                     add         byte ptr [bx+si],al 
0987                          L$35:
0987    FA                        cli         
0988    50                        push        ax 
0989    E4 60                     in          al,0x60 
098B    FB                        sti         
098C    1E                        push        ds 
098D    51                        push        cx 
098E    52                        push        dx 
098F    53                        push        bx 
0990    55                        push        bp 
0991    56                        push        si 
0992    57                        push        di 
0993    3C E0                     cmp         al,0xe0 
0995    75 0E                     jne         L$36 
0997    33 C0                     xor         ax,ax 
0999    8E D8                     mov         ds,ax 
099B    A0 96 04                  mov         al,byte ptr ds:[0x496] 
099E    0C 02                     or          al,0x02 
09A0    A2 96 04                  mov         byte ptr ds:[0x496],al 
09A3    EB 1C                     jmp         L$38 
09A5                          L$36:
09A5    3C E1                     cmp         al,0xe1 
09A7    75 0E                     jne         L$37 
09A9    33 C0                     xor         ax,ax 
09AB    8E D8                     mov         ds,ax 
09AD    A0 96 04                  mov         al,byte ptr ds:[0x496] 
09B0    0C 01                     or          al,0x01 
09B2    A2 96 04                  mov         byte ptr ds:[0x496],al 
09B5    EB 0A                     jmp         L$38 
09B7                          L$37:
09B7    BB 00 F0                  mov         bx,0xf000 
09BA    8E DB                     mov         ds,bx 
09BC    50                        push        ax 
09BD    E8 00 00                  call        _int09_function 
09C0    58                        pop         ax 
09C1                          L$38:
09C1    5F                        pop         di 
09C2    5E                        pop         si 
09C3    5D                        pop         bp 
09C4    5B                        pop         bx 
09C5    5A                        pop         dx 
09C6    59                        pop         cx 
09C7    1F                        pop         ds 
09C8    58                        pop         ax 
09C9    FA                        cli         
09CA    CF                        iret        
09CB    00 00                     add         byte ptr [bx+si],al 
09CD    00 00                     add         byte ptr [bx+si],al 
09CF    00 00                     add         byte ptr [bx+si],al 
09D1    00 00                     add         byte ptr [bx+si],al 
09D3    00 00                     add         byte ptr [bx+si],al 
09D5    00 00                     add         byte ptr [bx+si],al 
09D7    00 00                     add         byte ptr [bx+si],al 
09D9    00 00                     add         byte ptr [bx+si],al 
09DB    00 00                     add         byte ptr [bx+si],al 
09DD    00 00                     add         byte ptr [bx+si],al 
09DF    00 00                     add         byte ptr [bx+si],al 
09E1    00 00                     add         byte ptr [bx+si],al 
09E3    00 00                     add         byte ptr [bx+si],al 
09E5    00 00                     add         byte ptr [bx+si],al 
09E7    00 00                     add         byte ptr [bx+si],al 
09E9    00 00                     add         byte ptr [bx+si],al 
09EB    00 00                     add         byte ptr [bx+si],al 
09ED    00 00                     add         byte ptr [bx+si],al 
09EF    00 00                     add         byte ptr [bx+si],al 
09F1    00 00                     add         byte ptr [bx+si],al 
09F3    00 00                     add         byte ptr [bx+si],al 
09F5    00 00                     add         byte ptr [bx+si],al 
09F7    00 00                     add         byte ptr [bx+si],al 
09F9    00 00                     add         byte ptr [bx+si],al 
09FB    00 00                     add         byte ptr [bx+si],al 
09FD    00 00                     add         byte ptr [bx+si],al 
09FF    00 00                     add         byte ptr [bx+si],al 
0A01    00 00                     add         byte ptr [bx+si],al 
0A03    00 00                     add         byte ptr [bx+si],al 
0A05    00 00                     add         byte ptr [bx+si],al 
0A07    00 00                     add         byte ptr [bx+si],al 
0A09    00 00                     add         byte ptr [bx+si],al 
0A0B    00 00                     add         byte ptr [bx+si],al 
0A0D    00 00                     add         byte ptr [bx+si],al 
0A0F    00 00                     add         byte ptr [bx+si],al 
0A11    00 00                     add         byte ptr [bx+si],al 
0A13    00 00                     add         byte ptr [bx+si],al 
0A15    00 00                     add         byte ptr [bx+si],al 
0A17    00 00                     add         byte ptr [bx+si],al 
0A19    00 00                     add         byte ptr [bx+si],al 
0A1B    00 00                     add         byte ptr [bx+si],al 
0A1D    00 00                     add         byte ptr [bx+si],al 
0A1F    00 00                     add         byte ptr [bx+si],al 
0A21    00 00                     add         byte ptr [bx+si],al 
0A23    00 00                     add         byte ptr [bx+si],al 
0A25    00 00                     add         byte ptr [bx+si],al 
0A27    00 00                     add         byte ptr [bx+si],al 
0A29    00 00                     add         byte ptr [bx+si],al 
0A2B    00 00                     add         byte ptr [bx+si],al 
0A2D    00 00                     add         byte ptr [bx+si],al 
0A2F    00 00                     add         byte ptr [bx+si],al 
0A31    00 00                     add         byte ptr [bx+si],al 
0A33    00 00                     add         byte ptr [bx+si],al 
0A35    00 00                     add         byte ptr [bx+si],al 
0A37    00 00                     add         byte ptr [bx+si],al 
0A39    00 00                     add         byte ptr [bx+si],al 
0A3B    00 00                     add         byte ptr [bx+si],al 
0A3D    00 00                     add         byte ptr [bx+si],al 
0A3F    00 00                     add         byte ptr [bx+si],al 
0A41    00 00                     add         byte ptr [bx+si],al 
0A43    00 00                     add         byte ptr [bx+si],al 
0A45    00 00                     add         byte ptr [bx+si],al 
0A47    00 00                     add         byte ptr [bx+si],al 
0A49    00 00                     add         byte ptr [bx+si],al 
0A4B    00 00                     add         byte ptr [bx+si],al 
0A4D    00 00                     add         byte ptr [bx+si],al 
0A4F    00 00                     add         byte ptr [bx+si],al 
0A51    00 00                     add         byte ptr [bx+si],al 
0A53    00 00                     add         byte ptr [bx+si],al 
0A55    00 00                     add         byte ptr [bx+si],al 
0A57    00 00                     add         byte ptr [bx+si],al 
0A59    00 00                     add         byte ptr [bx+si],al 
0A5B    00 00                     add         byte ptr [bx+si],al 
0A5D    00 00                     add         byte ptr [bx+si],al 
0A5F    00 00                     add         byte ptr [bx+si],al 
0A61    00 00                     add         byte ptr [bx+si],al 
0A63    00 00                     add         byte ptr [bx+si],al 
0A65    00 00                     add         byte ptr [bx+si],al 
0A67    00 00                     add         byte ptr [bx+si],al 
0A69    00 00                     add         byte ptr [bx+si],al 
0A6B    00 00                     add         byte ptr [bx+si],al 
0A6D    00 00                     add         byte ptr [bx+si],al 
0A6F    00 00                     add         byte ptr [bx+si],al 
0A71    00 00                     add         byte ptr [bx+si],al 
0A73    00 00                     add         byte ptr [bx+si],al 
0A75    00 00                     add         byte ptr [bx+si],al 
0A77    00 00                     add         byte ptr [bx+si],al 
0A79    00 00                     add         byte ptr [bx+si],al 
0A7B    00 00                     add         byte ptr [bx+si],al 
0A7D    00 00                     add         byte ptr [bx+si],al 
0A7F    00 00                     add         byte ptr [bx+si],al 
0A81    00 00                     add         byte ptr [bx+si],al 
0A83    00 00                     add         byte ptr [bx+si],al 
0A85    00 00                     add         byte ptr [bx+si],al 
0A87    00 00                     add         byte ptr [bx+si],al 
0A89    00 00                     add         byte ptr [bx+si],al 
0A8B    00 00                     add         byte ptr [bx+si],al 
0A8D    00 00                     add         byte ptr [bx+si],al 
0A8F    00 00                     add         byte ptr [bx+si],al 
0A91    00 00                     add         byte ptr [bx+si],al 
0A93    00 00                     add         byte ptr [bx+si],al 
0A95    00 00                     add         byte ptr [bx+si],al 
0A97    00 00                     add         byte ptr [bx+si],al 
0A99    00 00                     add         byte ptr [bx+si],al 
0A9B    00 00                     add         byte ptr [bx+si],al 
0A9D    00 00                     add         byte ptr [bx+si],al 
0A9F    00 00                     add         byte ptr [bx+si],al 
0AA1    00 00                     add         byte ptr [bx+si],al 
0AA3    00 00                     add         byte ptr [bx+si],al 
0AA5    00 00                     add         byte ptr [bx+si],al 
0AA7    00 00                     add         byte ptr [bx+si],al 
0AA9    00 00                     add         byte ptr [bx+si],al 
0AAB    00 00                     add         byte ptr [bx+si],al 
0AAD    00 00                     add         byte ptr [bx+si],al 
0AAF    00 00                     add         byte ptr [bx+si],al 
0AB1    00 00                     add         byte ptr [bx+si],al 
0AB3    00 00                     add         byte ptr [bx+si],al 
0AB5    00 00                     add         byte ptr [bx+si],al 
0AB7    00 00                     add         byte ptr [bx+si],al 
0AB9    00 00                     add         byte ptr [bx+si],al 
0ABB    00 00                     add         byte ptr [bx+si],al 
0ABD    00 00                     add         byte ptr [bx+si],al 
0ABF    00 00                     add         byte ptr [bx+si],al 
0AC1    00 00                     add         byte ptr [bx+si],al 
0AC3    00 00                     add         byte ptr [bx+si],al 
0AC5    00 00                     add         byte ptr [bx+si],al 
0AC7    00 00                     add         byte ptr [bx+si],al 
0AC9    00 00                     add         byte ptr [bx+si],al 
0ACB    00 00                     add         byte ptr [bx+si],al 
0ACD    00 00                     add         byte ptr [bx+si],al 
0ACF    00 00                     add         byte ptr [bx+si],al 
0AD1    00 00                     add         byte ptr [bx+si],al 
0AD3    00 00                     add         byte ptr [bx+si],al 
0AD5    00 00                     add         byte ptr [bx+si],al 
0AD7    00 00                     add         byte ptr [bx+si],al 
0AD9    00 00                     add         byte ptr [bx+si],al 
0ADB    00 00                     add         byte ptr [bx+si],al 
0ADD    00 00                     add         byte ptr [bx+si],al 
0ADF    00 00                     add         byte ptr [bx+si],al 
0AE1    00 00                     add         byte ptr [bx+si],al 
0AE3    00 00                     add         byte ptr [bx+si],al 
0AE5    00 00                     add         byte ptr [bx+si],al 
0AE7    00 00                     add         byte ptr [bx+si],al 
0AE9    00 00                     add         byte ptr [bx+si],al 
0AEB    00 00                     add         byte ptr [bx+si],al 
0AED    00 00                     add         byte ptr [bx+si],al 
0AEF    00 00                     add         byte ptr [bx+si],al 
0AF1    00 00                     add         byte ptr [bx+si],al 
0AF3    00 00                     add         byte ptr [bx+si],al 
0AF5    00 00                     add         byte ptr [bx+si],al 
0AF7    00 00                     add         byte ptr [bx+si],al 
0AF9    00 00                     add         byte ptr [bx+si],al 
0AFB    00 00                     add         byte ptr [bx+si],al 
0AFD    00 00                     add         byte ptr [bx+si],al 
0AFF    00 00                     add         byte ptr [bx+si],al 
0B01    00 00                     add         byte ptr [bx+si],al 
0B03    00 00                     add         byte ptr [bx+si],al 
0B05    00 00                     add         byte ptr [bx+si],al 
0B07    00 00                     add         byte ptr [bx+si],al 
0B09    00 00                     add         byte ptr [bx+si],al 
0B0B    00 00                     add         byte ptr [bx+si],al 
0B0D    00 00                     add         byte ptr [bx+si],al 
0B0F    00 00                     add         byte ptr [bx+si],al 
0B11    00 00                     add         byte ptr [bx+si],al 
0B13    00 00                     add         byte ptr [bx+si],al 
0B15    00 00                     add         byte ptr [bx+si],al 
0B17    00 00                     add         byte ptr [bx+si],al 
0B19    00 00                     add         byte ptr [bx+si],al 
0B1B    00 00                     add         byte ptr [bx+si],al 
0B1D    00 00                     add         byte ptr [bx+si],al 
0B1F    00 00                     add         byte ptr [bx+si],al 
0B21    00 00                     add         byte ptr [bx+si],al 
0B23    00 00                     add         byte ptr [bx+si],al 
0B25    00 00                     add         byte ptr [bx+si],al 
0B27    00 00                     add         byte ptr [bx+si],al 
0B29    00 00                     add         byte ptr [bx+si],al 
0B2B    00 00                     add         byte ptr [bx+si],al 
0B2D    00 00                     add         byte ptr [bx+si],al 
0B2F    00 00                     add         byte ptr [bx+si],al 
0B31    00 00                     add         byte ptr [bx+si],al 
0B33    00 00                     add         byte ptr [bx+si],al 
0B35    00 00                     add         byte ptr [bx+si],al 
0B37    00 00                     add         byte ptr [bx+si],al 
0B39    00 00                     add         byte ptr [bx+si],al 
0B3B    00 00                     add         byte ptr [bx+si],al 
0B3D    00 00                     add         byte ptr [bx+si],al 
0B3F    00 00                     add         byte ptr [bx+si],al 
0B41    00 00                     add         byte ptr [bx+si],al 
0B43    00 00                     add         byte ptr [bx+si],al 
0B45    00 00                     add         byte ptr [bx+si],al 
0B47    00 00                     add         byte ptr [bx+si],al 
0B49    00 00                     add         byte ptr [bx+si],al 
0B4B    00 00                     add         byte ptr [bx+si],al 
0B4D    00 00                     add         byte ptr [bx+si],al 
0B4F    00 00                     add         byte ptr [bx+si],al 
0B51    00 00                     add         byte ptr [bx+si],al 
0B53    00 00                     add         byte ptr [bx+si],al 
0B55    00 00                     add         byte ptr [bx+si],al 
0B57    00 00                     add         byte ptr [bx+si],al 
0B59    00 00                     add         byte ptr [bx+si],al 
0B5B    00 00                     add         byte ptr [bx+si],al 
0B5D    00 00                     add         byte ptr [bx+si],al 
0B5F    00 00                     add         byte ptr [bx+si],al 
0B61    00 00                     add         byte ptr [bx+si],al 
0B63    00 00                     add         byte ptr [bx+si],al 
0B65    00 00                     add         byte ptr [bx+si],al 
0B67    00 00                     add         byte ptr [bx+si],al 
0B69    00 00                     add         byte ptr [bx+si],al 
0B6B    00 00                     add         byte ptr [bx+si],al 
0B6D    00 00                     add         byte ptr [bx+si],al 
0B6F    00 00                     add         byte ptr [bx+si],al 
0B71    00 00                     add         byte ptr [bx+si],al 
0B73    00 00                     add         byte ptr [bx+si],al 
0B75    00 00                     add         byte ptr [bx+si],al 
0B77    00 00                     add         byte ptr [bx+si],al 
0B79    00 00                     add         byte ptr [bx+si],al 
0B7B    00 00                     add         byte ptr [bx+si],al 
0B7D    00 00                     add         byte ptr [bx+si],al 
0B7F    00 00                     add         byte ptr [bx+si],al 
0B81    00 00                     add         byte ptr [bx+si],al 
0B83    00 00                     add         byte ptr [bx+si],al 
0B85    00 00                     add         byte ptr [bx+si],al 
0B87    00 00                     add         byte ptr [bx+si],al 
0B89    00 00                     add         byte ptr [bx+si],al 
0B8B    00 00                     add         byte ptr [bx+si],al 
0B8D    00 00                     add         byte ptr [bx+si],al 
0B8F    00 00                     add         byte ptr [bx+si],al 
0B91    00 00                     add         byte ptr [bx+si],al 
0B93    00 00                     add         byte ptr [bx+si],al 
0B95    00 00                     add         byte ptr [bx+si],al 
0B97    00 00                     add         byte ptr [bx+si],al 
0B99    00 00                     add         byte ptr [bx+si],al 
0B9B    00 00                     add         byte ptr [bx+si],al 
0B9D    00 00                     add         byte ptr [bx+si],al 
0B9F    00 00                     add         byte ptr [bx+si],al 
0BA1    00 00                     add         byte ptr [bx+si],al 
0BA3    00 00                     add         byte ptr [bx+si],al 
0BA5    00 00                     add         byte ptr [bx+si],al 
0BA7    00 00                     add         byte ptr [bx+si],al 
0BA9    00 00                     add         byte ptr [bx+si],al 
0BAB    00 00                     add         byte ptr [bx+si],al 
0BAD    00 00                     add         byte ptr [bx+si],al 
0BAF    00 00                     add         byte ptr [bx+si],al 
0BB1    00 00                     add         byte ptr [bx+si],al 
0BB3    00 00                     add         byte ptr [bx+si],al 
0BB5    00 00                     add         byte ptr [bx+si],al 
0BB7    00 00                     add         byte ptr [bx+si],al 
0BB9    00 00                     add         byte ptr [bx+si],al 
0BBB    00 00                     add         byte ptr [bx+si],al 
0BBD    00 00                     add         byte ptr [bx+si],al 
0BBF    00 00                     add         byte ptr [bx+si],al 
0BC1    00 00                     add         byte ptr [bx+si],al 
0BC3    00 00                     add         byte ptr [bx+si],al 
0BC5    00 00                     add         byte ptr [bx+si],al 
0BC7    00 00                     add         byte ptr [bx+si],al 
0BC9    00 00                     add         byte ptr [bx+si],al 
0BCB    00 00                     add         byte ptr [bx+si],al 
0BCD    00 00                     add         byte ptr [bx+si],al 
0BCF    00 00                     add         byte ptr [bx+si],al 
0BD1    00 00                     add         byte ptr [bx+si],al 
0BD3    00 00                     add         byte ptr [bx+si],al 
0BD5    00 00                     add         byte ptr [bx+si],al 
0BD7    00 00                     add         byte ptr [bx+si],al 
0BD9    00 00                     add         byte ptr [bx+si],al 
0BDB    00 00                     add         byte ptr [bx+si],al 
0BDD    00 00                     add         byte ptr [bx+si],al 
0BDF    00 00                     add         byte ptr [bx+si],al 
0BE1    00 00                     add         byte ptr [bx+si],al 
0BE3    00 00                     add         byte ptr [bx+si],al 
0BE5    00 00                     add         byte ptr [bx+si],al 
0BE7    00 00                     add         byte ptr [bx+si],al 
0BE9    00 00                     add         byte ptr [bx+si],al 
0BEB    00 00                     add         byte ptr [bx+si],al 
0BED    00 00                     add         byte ptr [bx+si],al 
0BEF    00 00                     add         byte ptr [bx+si],al 
0BF1    00 00                     add         byte ptr [bx+si],al 
0BF3    00 00                     add         byte ptr [bx+si],al 
0BF5    00 00                     add         byte ptr [bx+si],al 
0BF7    00 00                     add         byte ptr [bx+si],al 
0BF9    00 00                     add         byte ptr [bx+si],al 
0BFB    00 00                     add         byte ptr [bx+si],al 
0BFD    00 00                     add         byte ptr [bx+si],al 
0BFF    00 00                     add         byte ptr [bx+si],al 
0C01    00 00                     add         byte ptr [bx+si],al 
0C03    00 00                     add         byte ptr [bx+si],al 
0C05    00 00                     add         byte ptr [bx+si],al 
0C07    00 00                     add         byte ptr [bx+si],al 
0C09    00 00                     add         byte ptr [bx+si],al 
0C0B    00 00                     add         byte ptr [bx+si],al 
0C0D    00 00                     add         byte ptr [bx+si],al 
0C0F    00 00                     add         byte ptr [bx+si],al 
0C11    00 00                     add         byte ptr [bx+si],al 
0C13    00 00                     add         byte ptr [bx+si],al 
0C15    00 00                     add         byte ptr [bx+si],al 
0C17    00 00                     add         byte ptr [bx+si],al 
0C19    00 00                     add         byte ptr [bx+si],al 
0C1B    00 00                     add         byte ptr [bx+si],al 
0C1D    00 00                     add         byte ptr [bx+si],al 
0C1F    00 00                     add         byte ptr [bx+si],al 
0C21    00 00                     add         byte ptr [bx+si],al 
0C23    00 00                     add         byte ptr [bx+si],al 
0C25    00 00                     add         byte ptr [bx+si],al 
0C27    00 00                     add         byte ptr [bx+si],al 
0C29    00 00                     add         byte ptr [bx+si],al 
0C2B    00 00                     add         byte ptr [bx+si],al 
0C2D    00 00                     add         byte ptr [bx+si],al 
0C2F    00 00                     add         byte ptr [bx+si],al 
0C31    00 00                     add         byte ptr [bx+si],al 
0C33    00 00                     add         byte ptr [bx+si],al 
0C35    00 00                     add         byte ptr [bx+si],al 
0C37    00 00                     add         byte ptr [bx+si],al 
0C39    00 00                     add         byte ptr [bx+si],al 
0C3B    00 00                     add         byte ptr [bx+si],al 
0C3D    00 00                     add         byte ptr [bx+si],al 
0C3F    00 00                     add         byte ptr [bx+si],al 
0C41    00 00                     add         byte ptr [bx+si],al 
0C43    00 00                     add         byte ptr [bx+si],al 
0C45    00 00                     add         byte ptr [bx+si],al 
0C47    00 00                     add         byte ptr [bx+si],al 
0C49    00 00                     add         byte ptr [bx+si],al 
0C4B    00 00                     add         byte ptr [bx+si],al 
0C4D    00 00                     add         byte ptr [bx+si],al 
0C4F    00 00                     add         byte ptr [bx+si],al 
0C51    00 00                     add         byte ptr [bx+si],al 
0C53    00 00                     add         byte ptr [bx+si],al 
0C55    00 00                     add         byte ptr [bx+si],al 
0C57    00 00                     add         byte ptr [bx+si],al 
0C59    00 00                     add         byte ptr [bx+si],al 
0C5B    00 00                     add         byte ptr [bx+si],al 
0C5D    00 00                     add         byte ptr [bx+si],al 
0C5F    00 00                     add         byte ptr [bx+si],al 
0C61    00 00                     add         byte ptr [bx+si],al 
0C63    00 00                     add         byte ptr [bx+si],al 
0C65    00 00                     add         byte ptr [bx+si],al 
0C67    00 00                     add         byte ptr [bx+si],al 
0C69    00 00                     add         byte ptr [bx+si],al 
0C6B    00 00                     add         byte ptr [bx+si],al 
0C6D    00 00                     add         byte ptr [bx+si],al 
0C6F    00 00                     add         byte ptr [bx+si],al 
0C71    00 00                     add         byte ptr [bx+si],al 
0C73    00 00                     add         byte ptr [bx+si],al 
0C75    00 00                     add         byte ptr [bx+si],al 
0C77    00 00                     add         byte ptr [bx+si],al 
0C79    00 00                     add         byte ptr [bx+si],al 
0C7B    00 00                     add         byte ptr [bx+si],al 
0C7D    00 00                     add         byte ptr [bx+si],al 
0C7F    00 00                     add         byte ptr [bx+si],al 
0C81    00 00                     add         byte ptr [bx+si],al 
0C83    00 00                     add         byte ptr [bx+si],al 
0C85    00 00                     add         byte ptr [bx+si],al 
0C87    00 00                     add         byte ptr [bx+si],al 
0C89    00 00                     add         byte ptr [bx+si],al 
0C8B    00 00                     add         byte ptr [bx+si],al 
0C8D    00 00                     add         byte ptr [bx+si],al 
0C8F    00 00                     add         byte ptr [bx+si],al 
0C91    00 00                     add         byte ptr [bx+si],al 
0C93    00 00                     add         byte ptr [bx+si],al 
0C95    00 00                     add         byte ptr [bx+si],al 
0C97    00 00                     add         byte ptr [bx+si],al 
0C99    00 00                     add         byte ptr [bx+si],al 
0C9B    00 00                     add         byte ptr [bx+si],al 
0C9D    00 00                     add         byte ptr [bx+si],al 
0C9F    00 00                     add         byte ptr [bx+si],al 
0CA1    00 00                     add         byte ptr [bx+si],al 
0CA3    00 00                     add         byte ptr [bx+si],al 
0CA5    00 00                     add         byte ptr [bx+si],al 
0CA7    00 00                     add         byte ptr [bx+si],al 
0CA9    00 00                     add         byte ptr [bx+si],al 
0CAB    00 00                     add         byte ptr [bx+si],al 
0CAD    00 00                     add         byte ptr [bx+si],al 
0CAF    00 00                     add         byte ptr [bx+si],al 
0CB1    00 00                     add         byte ptr [bx+si],al 
0CB3    00 00                     add         byte ptr [bx+si],al 
0CB5    00 00                     add         byte ptr [bx+si],al 
0CB7    00 00                     add         byte ptr [bx+si],al 
0CB9    00 00                     add         byte ptr [bx+si],al 
0CBB    00 00                     add         byte ptr [bx+si],al 
0CBD    00 00                     add         byte ptr [bx+si],al 
0CBF    00 00                     add         byte ptr [bx+si],al 
0CC1    00 00                     add         byte ptr [bx+si],al 
0CC3    00 00                     add         byte ptr [bx+si],al 
0CC5    00 00                     add         byte ptr [bx+si],al 
0CC7    00 00                     add         byte ptr [bx+si],al 
0CC9    00 00                     add         byte ptr [bx+si],al 
0CCB    00 00                     add         byte ptr [bx+si],al 
0CCD    00 00                     add         byte ptr [bx+si],al 
0CCF    00 00                     add         byte ptr [bx+si],al 
0CD1    00 00                     add         byte ptr [bx+si],al 
0CD3    00 00                     add         byte ptr [bx+si],al 
0CD5    00 00                     add         byte ptr [bx+si],al 
0CD7    00 00                     add         byte ptr [bx+si],al 
0CD9    00 00                     add         byte ptr [bx+si],al 
0CDB    00 00                     add         byte ptr [bx+si],al 
0CDD    00 00                     add         byte ptr [bx+si],al 
0CDF    00 00                     add         byte ptr [bx+si],al 
0CE1    00 00                     add         byte ptr [bx+si],al 
0CE3    00 00                     add         byte ptr [bx+si],al 
0CE5    00 00                     add         byte ptr [bx+si],al 
0CE7    00 00                     add         byte ptr [bx+si],al 
0CE9    00 00                     add         byte ptr [bx+si],al 
0CEB    00 00                     add         byte ptr [bx+si],al 
0CED    00 00                     add         byte ptr [bx+si],al 
0CEF    00 00                     add         byte ptr [bx+si],al 
0CF1    00 00                     add         byte ptr [bx+si],al 
0CF3    00 00                     add         byte ptr [bx+si],al 
0CF5    00 00                     add         byte ptr [bx+si],al 
0CF7    00 00                     add         byte ptr [bx+si],al 
0CF9    00 00                     add         byte ptr [bx+si],al 
0CFB    00 00                     add         byte ptr [bx+si],al 
0CFD    00 00                     add         byte ptr [bx+si],al 
0CFF    00 00                     add         byte ptr [bx+si],al 
0D01    00 00                     add         byte ptr [bx+si],al 
0D03    00 00                     add         byte ptr [bx+si],al 
0D05    00 00                     add         byte ptr [bx+si],al 
0D07    00 00                     add         byte ptr [bx+si],al 
0D09    00 00                     add         byte ptr [bx+si],al 
0D0B    00 00                     add         byte ptr [bx+si],al 
0D0D    00 00                     add         byte ptr [bx+si],al 
0D0F    00 00                     add         byte ptr [bx+si],al 
0D11    00 00                     add         byte ptr [bx+si],al 
0D13    00 00                     add         byte ptr [bx+si],al 
0D15    00 00                     add         byte ptr [bx+si],al 
0D17    00 00                     add         byte ptr [bx+si],al 
0D19    00 00                     add         byte ptr [bx+si],al 
0D1B    00 00                     add         byte ptr [bx+si],al 
0D1D    00 00                     add         byte ptr [bx+si],al 
0D1F    00 00                     add         byte ptr [bx+si],al 
0D21    00 00                     add         byte ptr [bx+si],al 
0D23    00 00                     add         byte ptr [bx+si],al 
0D25    00 00                     add         byte ptr [bx+si],al 
0D27    00 00                     add         byte ptr [bx+si],al 
0D29    00 00                     add         byte ptr [bx+si],al 
0D2B    00 00                     add         byte ptr [bx+si],al 
0D2D    00 00                     add         byte ptr [bx+si],al 
0D2F    00 00                     add         byte ptr [bx+si],al 
0D31    00 00                     add         byte ptr [bx+si],al 
0D33    00 00                     add         byte ptr [bx+si],al 
0D35    00 00                     add         byte ptr [bx+si],al 
0D37    00 00                     add         byte ptr [bx+si],al 
0D39    00 00                     add         byte ptr [bx+si],al 
0D3B    00 00                     add         byte ptr [bx+si],al 
0D3D    00 00                     add         byte ptr [bx+si],al 
0D3F    00 00                     add         byte ptr [bx+si],al 
0D41    00 00                     add         byte ptr [bx+si],al 
0D43    00 00                     add         byte ptr [bx+si],al 
0D45    00 00                     add         byte ptr [bx+si],al 
0D47    00 00                     add         byte ptr [bx+si],al 
0D49    00 00                     add         byte ptr [bx+si],al 
0D4B    00 00                     add         byte ptr [bx+si],al 
0D4D    00 00                     add         byte ptr [bx+si],al 
0D4F    00 00                     add         byte ptr [bx+si],al 
0D51    00 00                     add         byte ptr [bx+si],al 
0D53    00 00                     add         byte ptr [bx+si],al 
0D55    00 00                     add         byte ptr [bx+si],al 
0D57    00 00                     add         byte ptr [bx+si],al 
0D59    00 00                     add         byte ptr [bx+si],al 
0D5B    00 00                     add         byte ptr [bx+si],al 
0D5D    00 00                     add         byte ptr [bx+si],al 
0D5F    00 00                     add         byte ptr [bx+si],al 
0D61    00 00                     add         byte ptr [bx+si],al 
0D63    00 00                     add         byte ptr [bx+si],al 
0D65    00 00                     add         byte ptr [bx+si],al 
0D67    00 00                     add         byte ptr [bx+si],al 
0D69    00 00                     add         byte ptr [bx+si],al 
0D6B    00 00                     add         byte ptr [bx+si],al 
0D6D    00 00                     add         byte ptr [bx+si],al 
0D6F    00 00                     add         byte ptr [bx+si],al 
0D71    00 00                     add         byte ptr [bx+si],al 
0D73    00 00                     add         byte ptr [bx+si],al 
0D75    00 00                     add         byte ptr [bx+si],al 
0D77    00 00                     add         byte ptr [bx+si],al 
0D79    00 00                     add         byte ptr [bx+si],al 
0D7B    00 00                     add         byte ptr [bx+si],al 
0D7D    00 00                     add         byte ptr [bx+si],al 
0D7F    00 00                     add         byte ptr [bx+si],al 
0D81    00 00                     add         byte ptr [bx+si],al 
0D83    00 00                     add         byte ptr [bx+si],al 
0D85    00 00                     add         byte ptr [bx+si],al 
0D87    00 00                     add         byte ptr [bx+si],al 
0D89    00 00                     add         byte ptr [bx+si],al 
0D8B    00 00                     add         byte ptr [bx+si],al 
0D8D    00 00                     add         byte ptr [bx+si],al 
0D8F    00 00                     add         byte ptr [bx+si],al 
0D91    00 00                     add         byte ptr [bx+si],al 
0D93    00 00                     add         byte ptr [bx+si],al 
0D95    00 00                     add         byte ptr [bx+si],al 
0D97    00 00                     add         byte ptr [bx+si],al 
0D99    00 00                     add         byte ptr [bx+si],al 
0D9B    00 00                     add         byte ptr [bx+si],al 
0D9D    00 00                     add         byte ptr [bx+si],al 
0D9F    00 00                     add         byte ptr [bx+si],al 
0DA1    00 00                     add         byte ptr [bx+si],al 
0DA3    00 00                     add         byte ptr [bx+si],al 
0DA5    00 00                     add         byte ptr [bx+si],al 
0DA7    00 00                     add         byte ptr [bx+si],al 
0DA9    00 00                     add         byte ptr [bx+si],al 
0DAB    00 00                     add         byte ptr [bx+si],al 
0DAD    00 00                     add         byte ptr [bx+si],al 
0DAF    00 00                     add         byte ptr [bx+si],al 
0DB1    00 00                     add         byte ptr [bx+si],al 
0DB3    00 00                     add         byte ptr [bx+si],al 
0DB5    00 00                     add         byte ptr [bx+si],al 
0DB7    00 00                     add         byte ptr [bx+si],al 
0DB9    00 00                     add         byte ptr [bx+si],al 
0DBB    00 00                     add         byte ptr [bx+si],al 
0DBD    00 00                     add         byte ptr [bx+si],al 
0DBF    00 00                     add         byte ptr [bx+si],al 
0DC1    00 00                     add         byte ptr [bx+si],al 
0DC3    00 00                     add         byte ptr [bx+si],al 
0DC5    00 00                     add         byte ptr [bx+si],al 
0DC7    00 00                     add         byte ptr [bx+si],al 
0DC9    00 00                     add         byte ptr [bx+si],al 
0DCB    00 00                     add         byte ptr [bx+si],al 
0DCD    00 00                     add         byte ptr [bx+si],al 
0DCF    00 00                     add         byte ptr [bx+si],al 
0DD1    00 00                     add         byte ptr [bx+si],al 
0DD3    00 00                     add         byte ptr [bx+si],al 
0DD5    00 00                     add         byte ptr [bx+si],al 
0DD7    00 00                     add         byte ptr [bx+si],al 
0DD9    00 00                     add         byte ptr [bx+si],al 
0DDB    00 00                     add         byte ptr [bx+si],al 
0DDD    00 00                     add         byte ptr [bx+si],al 
0DDF    00 00                     add         byte ptr [bx+si],al 
0DE1    00 00                     add         byte ptr [bx+si],al 
0DE3    00 00                     add         byte ptr [bx+si],al 
0DE5    00 00                     add         byte ptr [bx+si],al 
0DE7    00 00                     add         byte ptr [bx+si],al 
0DE9    00 00                     add         byte ptr [bx+si],al 
0DEB    00 00                     add         byte ptr [bx+si],al 
0DED    00 00                     add         byte ptr [bx+si],al 
0DEF    00 00                     add         byte ptr [bx+si],al 
0DF1    00 00                     add         byte ptr [bx+si],al 
0DF3    00 00                     add         byte ptr [bx+si],al 
0DF5    00 00                     add         byte ptr [bx+si],al 
0DF7    00 00                     add         byte ptr [bx+si],al 
0DF9    00 00                     add         byte ptr [bx+si],al 
0DFB    00 00                     add         byte ptr [bx+si],al 
0DFD    00 00                     add         byte ptr [bx+si],al 
0DFF    00 00                     add         byte ptr [bx+si],al 
0E01    00 00                     add         byte ptr [bx+si],al 
0E03    00 00                     add         byte ptr [bx+si],al 
0E05    00 00                     add         byte ptr [bx+si],al 
0E07    00 00                     add         byte ptr [bx+si],al 
0E09    00 00                     add         byte ptr [bx+si],al 
0E0B    00 00                     add         byte ptr [bx+si],al 
0E0D    00 00                     add         byte ptr [bx+si],al 
0E0F    00 00                     add         byte ptr [bx+si],al 
0E11    00 00                     add         byte ptr [bx+si],al 
0E13    00 00                     add         byte ptr [bx+si],al 
0E15    00 00                     add         byte ptr [bx+si],al 
0E17    00 00                     add         byte ptr [bx+si],al 
0E19    00 00                     add         byte ptr [bx+si],al 
0E1B    00 00                     add         byte ptr [bx+si],al 
0E1D    00 00                     add         byte ptr [bx+si],al 
0E1F    00 00                     add         byte ptr [bx+si],al 
0E21    00 00                     add         byte ptr [bx+si],al 
0E23    00 00                     add         byte ptr [bx+si],al 
0E25    00 00                     add         byte ptr [bx+si],al 
0E27    00 00                     add         byte ptr [bx+si],al 
0E29    00 00                     add         byte ptr [bx+si],al 
0E2B    00 00                     add         byte ptr [bx+si],al 
0E2D    00 00                     add         byte ptr [bx+si],al 
0E2F    00 00                     add         byte ptr [bx+si],al 
0E31    00 00                     add         byte ptr [bx+si],al 
0E33    00 00                     add         byte ptr [bx+si],al 
0E35    00 00                     add         byte ptr [bx+si],al 
0E37    00 00                     add         byte ptr [bx+si],al 
0E39    00 00                     add         byte ptr [bx+si],al 
0E3B    00 00                     add         byte ptr [bx+si],al 
0E3D    00 00                     add         byte ptr [bx+si],al 
0E3F    00 00                     add         byte ptr [bx+si],al 
0E41    00 00                     add         byte ptr [bx+si],al 
0E43    00 00                     add         byte ptr [bx+si],al 
0E45    00 00                     add         byte ptr [bx+si],al 
0E47    00 00                     add         byte ptr [bx+si],al 
0E49    00 00                     add         byte ptr [bx+si],al 
0E4B    00 00                     add         byte ptr [bx+si],al 
0E4D    00 00                     add         byte ptr [bx+si],al 
0E4F    00 00                     add         byte ptr [bx+si],al 
0E51    00 00                     add         byte ptr [bx+si],al 
0E53    00 00                     add         byte ptr [bx+si],al 
0E55    00 00                     add         byte ptr [bx+si],al 
0E57    00 00                     add         byte ptr [bx+si],al 
0E59    00 00                     add         byte ptr [bx+si],al 
0E5B    00 00                     add         byte ptr [bx+si],al 
0E5D    00 00                     add         byte ptr [bx+si],al 
0E5F    00 00                     add         byte ptr [bx+si],al 
0E61    00 00                     add         byte ptr [bx+si],al 
0E63    00 00                     add         byte ptr [bx+si],al 
0E65    00 00                     add         byte ptr [bx+si],al 
0E67    00 00                     add         byte ptr [bx+si],al 
0E69    00 00                     add         byte ptr [bx+si],al 
0E6B    00 00                     add         byte ptr [bx+si],al 
0E6D    00 00                     add         byte ptr [bx+si],al 
0E6F    00 00                     add         byte ptr [bx+si],al 
0E71    00 00                     add         byte ptr [bx+si],al 
0E73    00 00                     add         byte ptr [bx+si],al 
0E75    00 00                     add         byte ptr [bx+si],al 
0E77    00 00                     add         byte ptr [bx+si],al 
0E79    00 00                     add         byte ptr [bx+si],al 
0E7B    00 00                     add         byte ptr [bx+si],al 
0E7D    00 00                     add         byte ptr [bx+si],al 
0E7F    00 00                     add         byte ptr [bx+si],al 
0E81    00 00                     add         byte ptr [bx+si],al 
0E83    00 00                     add         byte ptr [bx+si],al 
0E85    00 00                     add         byte ptr [bx+si],al 
0E87    00 00                     add         byte ptr [bx+si],al 
0E89    00 00                     add         byte ptr [bx+si],al 
0E8B    00 00                     add         byte ptr [bx+si],al 
0E8D    00 00                     add         byte ptr [bx+si],al 
0E8F    00 00                     add         byte ptr [bx+si],al 
0E91    00 00                     add         byte ptr [bx+si],al 
0E93    00 00                     add         byte ptr [bx+si],al 
0E95    00 00                     add         byte ptr [bx+si],al 
0E97    00 00                     add         byte ptr [bx+si],al 
0E99    00 00                     add         byte ptr [bx+si],al 
0E9B    00 00                     add         byte ptr [bx+si],al 
0E9D    00 00                     add         byte ptr [bx+si],al 
0E9F    00 00                     add         byte ptr [bx+si],al 
0EA1    00 00                     add         byte ptr [bx+si],al 
0EA3    00 00                     add         byte ptr [bx+si],al 
0EA5    00 00                     add         byte ptr [bx+si],al 
0EA7    00 00                     add         byte ptr [bx+si],al 
0EA9    00 00                     add         byte ptr [bx+si],al 
0EAB    00 00                     add         byte ptr [bx+si],al 
0EAD    00 00                     add         byte ptr [bx+si],al 
0EAF    00 00                     add         byte ptr [bx+si],al 
0EB1    00 00                     add         byte ptr [bx+si],al 
0EB3    00 00                     add         byte ptr [bx+si],al 
0EB5    00 00                     add         byte ptr [bx+si],al 
0EB7    00 00                     add         byte ptr [bx+si],al 
0EB9    00 00                     add         byte ptr [bx+si],al 
0EBB    00 00                     add         byte ptr [bx+si],al 
0EBD    00 00                     add         byte ptr [bx+si],al 
0EBF    00 00                     add         byte ptr [bx+si],al 
0EC1    00 00                     add         byte ptr [bx+si],al 
0EC3    00 00                     add         byte ptr [bx+si],al 
0EC5    00 00                     add         byte ptr [bx+si],al 
0EC7    00 00                     add         byte ptr [bx+si],al 
0EC9    00 00                     add         byte ptr [bx+si],al 
0ECB    00 00                     add         byte ptr [bx+si],al 
0ECD    00 00                     add         byte ptr [bx+si],al 
0ECF    00 00                     add         byte ptr [bx+si],al 
0ED1    00 00                     add         byte ptr [bx+si],al 
0ED3    00 00                     add         byte ptr [bx+si],al 
0ED5    00 00                     add         byte ptr [bx+si],al 
0ED7    00 00                     add         byte ptr [bx+si],al 
0ED9    00 00                     add         byte ptr [bx+si],al 
0EDB    00 00                     add         byte ptr [bx+si],al 
0EDD    00 00                     add         byte ptr [bx+si],al 
0EDF    00 00                     add         byte ptr [bx+si],al 
0EE1    00 00                     add         byte ptr [bx+si],al 
0EE3    00 00                     add         byte ptr [bx+si],al 
0EE5    00 00                     add         byte ptr [bx+si],al 
0EE7    00 00                     add         byte ptr [bx+si],al 
0EE9    00 00                     add         byte ptr [bx+si],al 
0EEB    00 00                     add         byte ptr [bx+si],al 
0EED    00 00                     add         byte ptr [bx+si],al 
0EEF    00 00                     add         byte ptr [bx+si],al 
0EF1    00 00                     add         byte ptr [bx+si],al 
0EF3    00 00                     add         byte ptr [bx+si],al 
0EF5    00 00                     add         byte ptr [bx+si],al 
0EF7    00 00                     add         byte ptr [bx+si],al 
0EF9    00 00                     add         byte ptr [bx+si],al 
0EFB    00 00                     add         byte ptr [bx+si],al 
0EFD    00 00                     add         byte ptr [bx+si],al 
0EFF    00 00                     add         byte ptr [bx+si],al 
0F01    00 00                     add         byte ptr [bx+si],al 
0F03    00 00                     add         byte ptr [bx+si],al 
0F05    00 00                     add         byte ptr [bx+si],al 
0F07    00 00                     add         byte ptr [bx+si],al 
0F09    00 00                     add         byte ptr [bx+si],al 
0F0B    00 00                     add         byte ptr [bx+si],al 
0F0D    00 00                     add         byte ptr [bx+si],al 
0F0F    00 00                     add         byte ptr [bx+si],al 
0F11    00 00                     add         byte ptr [bx+si],al 
0F13    00 00                     add         byte ptr [bx+si],al 
0F15    00 00                     add         byte ptr [bx+si],al 
0F17    00 00                     add         byte ptr [bx+si],al 
0F19    00 00                     add         byte ptr [bx+si],al 
0F1B    00 00                     add         byte ptr [bx+si],al 
0F1D    00 00                     add         byte ptr [bx+si],al 
0F1F    00 00                     add         byte ptr [bx+si],al 
0F21    00 00                     add         byte ptr [bx+si],al 
0F23    00 00                     add         byte ptr [bx+si],al 
0F25    00 00                     add         byte ptr [bx+si],al 
0F27    00 00                     add         byte ptr [bx+si],al 
0F29    00 00                     add         byte ptr [bx+si],al 
0F2B    00 00                     add         byte ptr [bx+si],al 
0F2D    00 00                     add         byte ptr [bx+si],al 
0F2F    00 00                     add         byte ptr [bx+si],al 
0F31    00 00                     add         byte ptr [bx+si],al 
0F33    00 00                     add         byte ptr [bx+si],al 
0F35    00 00                     add         byte ptr [bx+si],al 
0F37    00 00                     add         byte ptr [bx+si],al 
0F39    00 00                     add         byte ptr [bx+si],al 
0F3B    00 00                     add         byte ptr [bx+si],al 
0F3D    00 00                     add         byte ptr [bx+si],al 
0F3F    00 00                     add         byte ptr [bx+si],al 
0F41    00 00                     add         byte ptr [bx+si],al 
0F43    00 00                     add         byte ptr [bx+si],al 
0F45    00 00                     add         byte ptr [bx+si],al 
0F47    00 00                     add         byte ptr [bx+si],al 
0F49    00 00                     add         byte ptr [bx+si],al 
0F4B    00 00                     add         byte ptr [bx+si],al 
0F4D    00 00                     add         byte ptr [bx+si],al 
0F4F    00 00                     add         byte ptr [bx+si],al 
0F51    00 00                     add         byte ptr [bx+si],al 
0F53    00 00                     add         byte ptr [bx+si],al 
0F55    00 00                     add         byte ptr [bx+si],al 
0F57    00 00                     add         byte ptr [bx+si],al 
0F59    00 00                     add         byte ptr [bx+si],al 
0F5B    00 00                     add         byte ptr [bx+si],al 
0F5D    00 00                     add         byte ptr [bx+si],al 
0F5F    00 00                     add         byte ptr [bx+si],al 
0F61    00 00                     add         byte ptr [bx+si],al 
0F63    00 00                     add         byte ptr [bx+si],al 
0F65    00 00                     add         byte ptr [bx+si],al 
0F67    00 00                     add         byte ptr [bx+si],al 
0F69    00 00                     add         byte ptr [bx+si],al 
0F6B    00 00                     add         byte ptr [bx+si],al 
0F6D    00 00                     add         byte ptr [bx+si],al 
0F6F    00 00                     add         byte ptr [bx+si],al 
0F71    00 00                     add         byte ptr [bx+si],al 
0F73    00 00                     add         byte ptr [bx+si],al 
0F75    00 00                     add         byte ptr [bx+si],al 
0F77    00 00                     add         byte ptr [bx+si],al 
0F79    00 00                     add         byte ptr [bx+si],al 
0F7B    00 00                     add         byte ptr [bx+si],al 
0F7D    00 00                     add         byte ptr [bx+si],al 
0F7F    00 00                     add         byte ptr [bx+si],al 
0F81    00 00                     add         byte ptr [bx+si],al 
0F83    00 00                     add         byte ptr [bx+si],al 
0F85    00 00                     add         byte ptr [bx+si],al 
0F87    00 00                     add         byte ptr [bx+si],al 
0F89    00 00                     add         byte ptr [bx+si],al 
0F8B    00 00                     add         byte ptr [bx+si],al 
0F8D    00 00                     add         byte ptr [bx+si],al 
0F8F    00 00                     add         byte ptr [bx+si],al 
0F91    00 00                     add         byte ptr [bx+si],al 
0F93    00 00                     add         byte ptr [bx+si],al 
0F95    00 00                     add         byte ptr [bx+si],al 
0F97    00 00                     add         byte ptr [bx+si],al 
0F99    00 00                     add         byte ptr [bx+si],al 
0F9B    00 00                     add         byte ptr [bx+si],al 
0F9D    00 00                     add         byte ptr [bx+si],al 
0F9F    00 00                     add         byte ptr [bx+si],al 
0FA1    00 00                     add         byte ptr [bx+si],al 
0FA3    00 00                     add         byte ptr [bx+si],al 
0FA5    00 00                     add         byte ptr [bx+si],al 
0FA7    00 00                     add         byte ptr [bx+si],al 
0FA9    00 00                     add         byte ptr [bx+si],al 
0FAB    00 00                     add         byte ptr [bx+si],al 
0FAD    00 00                     add         byte ptr [bx+si],al 
0FAF    00 00                     add         byte ptr [bx+si],al 
0FB1    00 00                     add         byte ptr [bx+si],al 
0FB3    00 00                     add         byte ptr [bx+si],al 
0FB5    00 00                     add         byte ptr [bx+si],al 
0FB7    00 00                     add         byte ptr [bx+si],al 
0FB9    00 00                     add         byte ptr [bx+si],al 
0FBB    00 00                     add         byte ptr [bx+si],al 
0FBD    00 00                     add         byte ptr [bx+si],al 
0FBF    00 00                     add         byte ptr [bx+si],al 
0FC1    00 00                     add         byte ptr [bx+si],al 
0FC3    00 00                     add         byte ptr [bx+si],al 
0FC5    00 00                     add         byte ptr [bx+si],al 
0FC7    AF 02 25 02 12 1B FF 6C F6 0F 08 4F 00 04       ..%....l...O..
0FD5    00 00                     add         byte ptr [bx+si],al 
0FD7    00 00                     add         byte ptr [bx+si],al 
0FD9    00 00                     add         byte ptr [bx+si],al 
0FDB    00 00                     add         byte ptr [bx+si],al 
0FDD    00 00                     add         byte ptr [bx+si],al 
0FDF    00 00                     add         byte ptr [bx+si],al 
0FE1    00 00                     add         byte ptr [bx+si],al 
0FE3    00 00                     add         byte ptr [bx+si],al 
0FE5    00 00                     add         byte ptr [bx+si],al 
0FE7    00 00                     add         byte ptr [bx+si],al 
0FE9    00 00                     add         byte ptr [bx+si],al 
0FEB    00 00                     add         byte ptr [bx+si],al 
0FED    00 00                     add         byte ptr [bx+si],al 
0FEF    00 00                     add         byte ptr [bx+si],al 
0FF1    00 00                     add         byte ptr [bx+si],al 
0FF3    00 00                     add         byte ptr [bx+si],al 
0FF5    00 00                     add         byte ptr [bx+si],al 
0FF7    00 00                     add         byte ptr [bx+si],al 
0FF9    00 00                     add         byte ptr [bx+si],al 
0FFB    00 00                     add         byte ptr [bx+si],al 
0FFD    00 00                     add         byte ptr [bx+si],al 
0FFF    00 00                     add         byte ptr [bx+si],al 
1001    00 00                     add         byte ptr [bx+si],al 
1003    00 00                     add         byte ptr [bx+si],al 
1005    00 00                     add         byte ptr [bx+si],al 
1007    00 00                     add         byte ptr [bx+si],al 
1009    00 00                     add         byte ptr [bx+si],al 
100B    00 00                     add         byte ptr [bx+si],al 
100D    00 00                     add         byte ptr [bx+si],al 
100F    00 00                     add         byte ptr [bx+si],al 
1011    00 00                     add         byte ptr [bx+si],al 
1013    00 00                     add         byte ptr [bx+si],al 
1015    00 00                     add         byte ptr [bx+si],al 
1017    00 00                     add         byte ptr [bx+si],al 
1019    00 00                     add         byte ptr [bx+si],al 
101B    00 00                     add         byte ptr [bx+si],al 
101D    00 00                     add         byte ptr [bx+si],al 
101F    00 00                     add         byte ptr [bx+si],al 
1021    00 00                     add         byte ptr [bx+si],al 
1023    00 00                     add         byte ptr [bx+si],al 
1025    00 00                     add         byte ptr [bx+si],al 
1027    00 00                     add         byte ptr [bx+si],al 
1029    00 00                     add         byte ptr [bx+si],al 
102B    00 00                     add         byte ptr [bx+si],al 
102D    00 00                     add         byte ptr [bx+si],al 
102F    00 00                     add         byte ptr [bx+si],al 
1031    00 00                     add         byte ptr [bx+si],al 
1033    00 00                     add         byte ptr [bx+si],al 
1035    00 00                     add         byte ptr [bx+si],al 
1037    00 00                     add         byte ptr [bx+si],al 
1039    00 00                     add         byte ptr [bx+si],al 
103B    00 00                     add         byte ptr [bx+si],al 
103D    00 00                     add         byte ptr [bx+si],al 
103F    00 00                     add         byte ptr [bx+si],al 
1041    00 00                     add         byte ptr [bx+si],al 
1043    00 00                     add         byte ptr [bx+si],al 
1045    00 00                     add         byte ptr [bx+si],al 
1047    00 00                     add         byte ptr [bx+si],al 
1049    00 00                     add         byte ptr [bx+si],al 
104B    00 00                     add         byte ptr [bx+si],al 
104D    00 00                     add         byte ptr [bx+si],al 
104F    00 00                     add         byte ptr [bx+si],al 
1051    00 00                     add         byte ptr [bx+si],al 
1053    00 00                     add         byte ptr [bx+si],al 
1055    00 00                     add         byte ptr [bx+si],al 
1057    00 00                     add         byte ptr [bx+si],al 
1059    00 00                     add         byte ptr [bx+si],al 
105B    00 00                     add         byte ptr [bx+si],al 
105D    00 00                     add         byte ptr [bx+si],al 
105F    00 00                     add         byte ptr [bx+si],al 
1061    00 00                     add         byte ptr [bx+si],al 
1063    00 00                     add         byte ptr [bx+si],al 
1065                          L$39:
1065    CF                        iret        
1066    00 00                     add         byte ptr [bx+si],al 
1068    00 00                     add         byte ptr [bx+si],al 
106A    00 00                     add         byte ptr [bx+si],al 
106C    00 00                     add         byte ptr [bx+si],al 
106E    00 00                     add         byte ptr [bx+si],al 
1070    00 00                     add         byte ptr [bx+si],al 
1072    00 00                     add         byte ptr [bx+si],al 
1074    00 00                     add         byte ptr [bx+si],al 
1076    00 00                     add         byte ptr [bx+si],al 
1078    00 00                     add         byte ptr [bx+si],al 
107A    00 00                     add         byte ptr [bx+si],al 
107C    00 00                     add         byte ptr [bx+si],al 
107E    00 00                     add         byte ptr [bx+si],al 
1080    00 00                     add         byte ptr [bx+si],al 
1082    00 00                     add         byte ptr [bx+si],al 
1084    00 00                     add         byte ptr [bx+si],al 
1086    00 00                     add         byte ptr [bx+si],al 
1088    00 00                     add         byte ptr [bx+si],al 
108A    00 00                     add         byte ptr [bx+si],al 
108C    00 00                     add         byte ptr [bx+si],al 
108E    00 00                     add         byte ptr [bx+si],al 
1090    00 00                     add         byte ptr [bx+si],al 
1092    00 00                     add         byte ptr [bx+si],al 
1094    00 00                     add         byte ptr [bx+si],al 
1096    00 00                     add         byte ptr [bx+si],al 
1098    00 00                     add         byte ptr [bx+si],al 
109A    00 00                     add         byte ptr [bx+si],al 
109C    00 00                     add         byte ptr [bx+si],al 
109E    00 00                     add         byte ptr [bx+si],al 
10A0    00 00                     add         byte ptr [bx+si],al 
10A2    00 00                     add         byte ptr [bx+si],al 
10A4    00 00                     add         byte ptr [bx+si],al 
10A6    00 00                     add         byte ptr [bx+si],al 
10A8    00 00                     add         byte ptr [bx+si],al 
10AA    00 00                     add         byte ptr [bx+si],al 
10AC    00 00                     add         byte ptr [bx+si],al 
10AE    00 00                     add         byte ptr [bx+si],al 
10B0    00 00                     add         byte ptr [bx+si],al 
10B2    00 00                     add         byte ptr [bx+si],al 
10B4    00 00                     add         byte ptr [bx+si],al 
10B6    00 00                     add         byte ptr [bx+si],al 
10B8    00 00                     add         byte ptr [bx+si],al 
10BA    00 00                     add         byte ptr [bx+si],al 
10BC    00 00                     add         byte ptr [bx+si],al 
10BE    00 00                     add         byte ptr [bx+si],al 
10C0    00 00                     add         byte ptr [bx+si],al 
10C2    00 00                     add         byte ptr [bx+si],al 
10C4    00 00                     add         byte ptr [bx+si],al 
10C6    00 00                     add         byte ptr [bx+si],al 
10C8    00 00                     add         byte ptr [bx+si],al 
10CA    00 00                     add         byte ptr [bx+si],al 
10CC    00 00                     add         byte ptr [bx+si],al 
10CE    00 00                     add         byte ptr [bx+si],al 
10D0    00 00                     add         byte ptr [bx+si],al 
10D2    00 00                     add         byte ptr [bx+si],al 
10D4    00 00                     add         byte ptr [bx+si],al 
10D6    00 00                     add         byte ptr [bx+si],al 
10D8    00 00                     add         byte ptr [bx+si],al 
10DA    00 00                     add         byte ptr [bx+si],al 
10DC    00 00                     add         byte ptr [bx+si],al 
10DE    00 00                     add         byte ptr [bx+si],al 
10E0    00 00                     add         byte ptr [bx+si],al 
10E2    00 00                     add         byte ptr [bx+si],al 
10E4    00 00                     add         byte ptr [bx+si],al 
10E6    00 00                     add         byte ptr [bx+si],al 
10E8    00 00                     add         byte ptr [bx+si],al 
10EA    00 00                     add         byte ptr [bx+si],al 
10EC    00 00                     add         byte ptr [bx+si],al 
10EE    00 00                     add         byte ptr [bx+si],al 
10F0    00 00                     add         byte ptr [bx+si],al 
10F2    00 00                     add         byte ptr [bx+si],al 
10F4    00 00                     add         byte ptr [bx+si],al 
10F6    00 00                     add         byte ptr [bx+si],al 
10F8    00 00                     add         byte ptr [bx+si],al 
10FA    00 00                     add         byte ptr [bx+si],al 
10FC    00 00                     add         byte ptr [bx+si],al 
10FE    00 00                     add         byte ptr [bx+si],al 
1100    00 00                     add         byte ptr [bx+si],al 
1102    00 00                     add         byte ptr [bx+si],al 
1104    00 00                     add         byte ptr [bx+si],al 
1106    00 00                     add         byte ptr [bx+si],al 
1108    00 00                     add         byte ptr [bx+si],al 
110A    00 00                     add         byte ptr [bx+si],al 
110C    00 00                     add         byte ptr [bx+si],al 
110E    00 00                     add         byte ptr [bx+si],al 
1110    00 00                     add         byte ptr [bx+si],al 
1112    00 00                     add         byte ptr [bx+si],al 
1114    00 00                     add         byte ptr [bx+si],al 
1116    00 00                     add         byte ptr [bx+si],al 
1118    00 00                     add         byte ptr [bx+si],al 
111A    00 00                     add         byte ptr [bx+si],al 
111C    00 00                     add         byte ptr [bx+si],al 
111E    00 00                     add         byte ptr [bx+si],al 
1120    00 00                     add         byte ptr [bx+si],al 
1122    00 00                     add         byte ptr [bx+si],al 
1124    00 00                     add         byte ptr [bx+si],al 
1126    00 00                     add         byte ptr [bx+si],al 
1128    00 00                     add         byte ptr [bx+si],al 
112A    00 00                     add         byte ptr [bx+si],al 
112C    00 00                     add         byte ptr [bx+si],al 
112E    00 00                     add         byte ptr [bx+si],al 
1130    00 00                     add         byte ptr [bx+si],al 
1132    00 00                     add         byte ptr [bx+si],al 
1134    00 00                     add         byte ptr [bx+si],al 
1136    00 00                     add         byte ptr [bx+si],al 
1138    00 00                     add         byte ptr [bx+si],al 
113A    00 00                     add         byte ptr [bx+si],al 
113C    00 00                     add         byte ptr [bx+si],al 
113E    00 00                     add         byte ptr [bx+si],al 
1140    00 00                     add         byte ptr [bx+si],al 
1142    00 00                     add         byte ptr [bx+si],al 
1144    00 00                     add         byte ptr [bx+si],al 
1146    00 00                     add         byte ptr [bx+si],al 
1148    00 00                     add         byte ptr [bx+si],al 
114A    00 00                     add         byte ptr [bx+si],al 
114C    00 00                     add         byte ptr [bx+si],al 
114E    00 00                     add         byte ptr [bx+si],al 
1150    00 00                     add         byte ptr [bx+si],al 
1152    00 00                     add         byte ptr [bx+si],al 
1154    00 00                     add         byte ptr [bx+si],al 
1156    00 00                     add         byte ptr [bx+si],al 
1158    00 00                     add         byte ptr [bx+si],al 
115A    00 00                     add         byte ptr [bx+si],al 
115C    00 00                     add         byte ptr [bx+si],al 
115E    00 00                     add         byte ptr [bx+si],al 
1160    00 00                     add         byte ptr [bx+si],al 
1162    00 00                     add         byte ptr [bx+si],al 
1164    00 00                     add         byte ptr [bx+si],al 
1166    00 00                     add         byte ptr [bx+si],al 
1168    00 00                     add         byte ptr [bx+si],al 
116A    00 00                     add         byte ptr [bx+si],al 
116C    00 00                     add         byte ptr [bx+si],al 
116E    00 00                     add         byte ptr [bx+si],al 
1170    00 00                     add         byte ptr [bx+si],al 
1172    00 00                     add         byte ptr [bx+si],al 
1174    00 00                     add         byte ptr [bx+si],al 
1176    00 00                     add         byte ptr [bx+si],al 
1178    00 00                     add         byte ptr [bx+si],al 
117A    00 00                     add         byte ptr [bx+si],al 
117C    00 00                     add         byte ptr [bx+si],al 
117E    00 00                     add         byte ptr [bx+si],al 
1180    00 00                     add         byte ptr [bx+si],al 
1182    00 00                     add         byte ptr [bx+si],al 
1184    00 00                     add         byte ptr [bx+si],al 
1186    00 00                     add         byte ptr [bx+si],al 
1188    00 00                     add         byte ptr [bx+si],al 
118A    00 00                     add         byte ptr [bx+si],al 
118C    00 00                     add         byte ptr [bx+si],al 
118E    00 00                     add         byte ptr [bx+si],al 
1190    00 00                     add         byte ptr [bx+si],al 
1192    00 00                     add         byte ptr [bx+si],al 
1194    00 00                     add         byte ptr [bx+si],al 
1196    00 00                     add         byte ptr [bx+si],al 
1198    00 00                     add         byte ptr [bx+si],al 
119A    00 00                     add         byte ptr [bx+si],al 
119C    00 00                     add         byte ptr [bx+si],al 
119E    00 00                     add         byte ptr [bx+si],al 
11A0    00 00                     add         byte ptr [bx+si],al 
11A2    00 00                     add         byte ptr [bx+si],al 
11A4    00 00                     add         byte ptr [bx+si],al 
11A6    00 00                     add         byte ptr [bx+si],al 
11A8    00 00                     add         byte ptr [bx+si],al 
11AA    00 00                     add         byte ptr [bx+si],al 
11AC    00 00                     add         byte ptr [bx+si],al 
11AE    00 00                     add         byte ptr [bx+si],al 
11B0    00 00                     add         byte ptr [bx+si],al 
11B2    00 00                     add         byte ptr [bx+si],al 
11B4    00 00                     add         byte ptr [bx+si],al 
11B6    00 00                     add         byte ptr [bx+si],al 
11B8    00 00                     add         byte ptr [bx+si],al 
11BA    00 00                     add         byte ptr [bx+si],al 
11BC    00 00                     add         byte ptr [bx+si],al 
11BE    00 00                     add         byte ptr [bx+si],al 
11C0    00 00                     add         byte ptr [bx+si],al 
11C2    00 00                     add         byte ptr [bx+si],al 
11C4    00 00                     add         byte ptr [bx+si],al 
11C6    00 00                     add         byte ptr [bx+si],al 
11C8    00 00                     add         byte ptr [bx+si],al 
11CA    00 00                     add         byte ptr [bx+si],al 
11CC    00 00                     add         byte ptr [bx+si],al 
11CE    00 00                     add         byte ptr [bx+si],al 
11D0    00 00                     add         byte ptr [bx+si],al 
11D2    00 00                     add         byte ptr [bx+si],al 
11D4    00 00                     add         byte ptr [bx+si],al 
11D6    00 00                     add         byte ptr [bx+si],al 
11D8    00 00                     add         byte ptr [bx+si],al 
11DA    00 00                     add         byte ptr [bx+si],al 
11DC    00 00                     add         byte ptr [bx+si],al 
11DE    00 00                     add         byte ptr [bx+si],al 
11E0    00 00                     add         byte ptr [bx+si],al 
11E2    00 00                     add         byte ptr [bx+si],al 
11E4    00 00                     add         byte ptr [bx+si],al 
11E6    00 00                     add         byte ptr [bx+si],al 
11E8    00 00                     add         byte ptr [bx+si],al 
11EA    00 00                     add         byte ptr [bx+si],al 
11EC    00 00                     add         byte ptr [bx+si],al 
11EE    00 00                     add         byte ptr [bx+si],al 
11F0    00 00                     add         byte ptr [bx+si],al 
11F2    00 00                     add         byte ptr [bx+si],al 
11F4    00 00                     add         byte ptr [bx+si],al 
11F6    00 00                     add         byte ptr [bx+si],al 
11F8    00 00                     add         byte ptr [bx+si],al 
11FA    00 00                     add         byte ptr [bx+si],al 
11FC    00 00                     add         byte ptr [bx+si],al 
11FE    00 00                     add         byte ptr [bx+si],al 
1200    00 00                     add         byte ptr [bx+si],al 
1202    00 00                     add         byte ptr [bx+si],al 
1204    00 00                     add         byte ptr [bx+si],al 
1206    00 00                     add         byte ptr [bx+si],al 
1208    00 00                     add         byte ptr [bx+si],al 
120A    00 00                     add         byte ptr [bx+si],al 
120C    00 00                     add         byte ptr [bx+si],al 
120E    00 00                     add         byte ptr [bx+si],al 
1210    00 00                     add         byte ptr [bx+si],al 
1212    00 00                     add         byte ptr [bx+si],al 
1214    00 00                     add         byte ptr [bx+si],al 
1216    00 00                     add         byte ptr [bx+si],al 
1218    00 00                     add         byte ptr [bx+si],al 
121A    00 00                     add         byte ptr [bx+si],al 
121C    00 00                     add         byte ptr [bx+si],al 
121E    00 00                     add         byte ptr [bx+si],al 
1220    00 00                     add         byte ptr [bx+si],al 
1222    00 00                     add         byte ptr [bx+si],al 
1224    00 00                     add         byte ptr [bx+si],al 
1226    00 00                     add         byte ptr [bx+si],al 
1228    00 00                     add         byte ptr [bx+si],al 
122A    00 00                     add         byte ptr [bx+si],al 
122C    00 00                     add         byte ptr [bx+si],al 
122E    00 00                     add         byte ptr [bx+si],al 
1230    00 00                     add         byte ptr [bx+si],al 
1232    00 00                     add         byte ptr [bx+si],al 
1234    00 00                     add         byte ptr [bx+si],al 
1236    00 00                     add         byte ptr [bx+si],al 
1238    00 00                     add         byte ptr [bx+si],al 
123A    00 00                     add         byte ptr [bx+si],al 
123C    00 00                     add         byte ptr [bx+si],al 
123E    00 00                     add         byte ptr [bx+si],al 
1240    00 00                     add         byte ptr [bx+si],al 
1242    00 00                     add         byte ptr [bx+si],al 
1244    00 00                     add         byte ptr [bx+si],al 
1246    00 00                     add         byte ptr [bx+si],al 
1248    00 00                     add         byte ptr [bx+si],al 
124A    00 00                     add         byte ptr [bx+si],al 
124C    00 00                     add         byte ptr [bx+si],al 
124E    00 00                     add         byte ptr [bx+si],al 
1250    00 00                     add         byte ptr [bx+si],al 
1252    00 00                     add         byte ptr [bx+si],al 
1254    00 00                     add         byte ptr [bx+si],al 
1256    00 00                     add         byte ptr [bx+si],al 
1258    00 00                     add         byte ptr [bx+si],al 
125A    00 00                     add         byte ptr [bx+si],al 
125C    00 00                     add         byte ptr [bx+si],al 
125E    00 00                     add         byte ptr [bx+si],al 
1260    00 00                     add         byte ptr [bx+si],al 
1262    00 00                     add         byte ptr [bx+si],al 
1264    00 00                     add         byte ptr [bx+si],al 
1266    00 00                     add         byte ptr [bx+si],al 
1268    00 00                     add         byte ptr [bx+si],al 
126A    00 00                     add         byte ptr [bx+si],al 
126C    00 00                     add         byte ptr [bx+si],al 
126E    00 00                     add         byte ptr [bx+si],al 
1270    00 00                     add         byte ptr [bx+si],al 
1272    00 00                     add         byte ptr [bx+si],al 
1274    00 00                     add         byte ptr [bx+si],al 
1276    00 00                     add         byte ptr [bx+si],al 
1278    00 00                     add         byte ptr [bx+si],al 
127A    00 00                     add         byte ptr [bx+si],al 
127C    00 00                     add         byte ptr [bx+si],al 
127E    00 00                     add         byte ptr [bx+si],al 
1280    00 00                     add         byte ptr [bx+si],al 
1282    00 00                     add         byte ptr [bx+si],al 
1284    00 00                     add         byte ptr [bx+si],al 
1286    00 00                     add         byte ptr [bx+si],al 
1288    00 00                     add         byte ptr [bx+si],al 
128A    00 00                     add         byte ptr [bx+si],al 
128C    00 00                     add         byte ptr [bx+si],al 
128E    00 00                     add         byte ptr [bx+si],al 
1290    00 00                     add         byte ptr [bx+si],al 
1292    00 00                     add         byte ptr [bx+si],al 
1294    00 00                     add         byte ptr [bx+si],al 
1296    00 00                     add         byte ptr [bx+si],al 
1298    00 00                     add         byte ptr [bx+si],al 
129A    00 00                     add         byte ptr [bx+si],al 
129C    00 00                     add         byte ptr [bx+si],al 
129E    00 00                     add         byte ptr [bx+si],al 
12A0    00 00                     add         byte ptr [bx+si],al 
12A2    00 00                     add         byte ptr [bx+si],al 
12A4    00 00                     add         byte ptr [bx+si],al 
12A6    00 00                     add         byte ptr [bx+si],al 
12A8    00 00                     add         byte ptr [bx+si],al 
12AA    00 00                     add         byte ptr [bx+si],al 
12AC    00 00                     add         byte ptr [bx+si],al 
12AE    00 00                     add         byte ptr [bx+si],al 
12B0    00 00                     add         byte ptr [bx+si],al 
12B2    00 00                     add         byte ptr [bx+si],al 
12B4    00 00                     add         byte ptr [bx+si],al 
12B6    00 00                     add         byte ptr [bx+si],al 
12B8    00 00                     add         byte ptr [bx+si],al 
12BA    00 00                     add         byte ptr [bx+si],al 
12BC    00 00                     add         byte ptr [bx+si],al 
12BE    00 00                     add         byte ptr [bx+si],al 
12C0    00 00                     add         byte ptr [bx+si],al 
12C2    00 00                     add         byte ptr [bx+si],al 
12C4    00 00                     add         byte ptr [bx+si],al 
12C6    00 00                     add         byte ptr [bx+si],al 
12C8    00 00                     add         byte ptr [bx+si],al 
12CA    00 00                     add         byte ptr [bx+si],al 
12CC    00 00                     add         byte ptr [bx+si],al 
12CE    00 00                     add         byte ptr [bx+si],al 
12D0    00 00                     add         byte ptr [bx+si],al 
12D2    00 00                     add         byte ptr [bx+si],al 
12D4    00 00                     add         byte ptr [bx+si],al 
12D6    00 00                     add         byte ptr [bx+si],al 
12D8    00 00                     add         byte ptr [bx+si],al 
12DA    00 00                     add         byte ptr [bx+si],al 
12DC    00 00                     add         byte ptr [bx+si],al 
12DE    00 00                     add         byte ptr [bx+si],al 
12E0    00 00                     add         byte ptr [bx+si],al 
12E2    00 00                     add         byte ptr [bx+si],al 
12E4    00 00                     add         byte ptr [bx+si],al 
12E6    00 00                     add         byte ptr [bx+si],al 
12E8    00 00                     add         byte ptr [bx+si],al 
12EA    00 00                     add         byte ptr [bx+si],al 
12EC    00 00                     add         byte ptr [bx+si],al 
12EE    00 00                     add         byte ptr [bx+si],al 
12F0    00 00                     add         byte ptr [bx+si],al 
12F2    00 00                     add         byte ptr [bx+si],al 
12F4    00 00                     add         byte ptr [bx+si],al 
12F6    00 00                     add         byte ptr [bx+si],al 
12F8    00 00                     add         byte ptr [bx+si],al 
12FA    00 00                     add         byte ptr [bx+si],al 
12FC    00 00                     add         byte ptr [bx+si],al 
12FE    00 00                     add         byte ptr [bx+si],al 
1300    00 00                     add         byte ptr [bx+si],al 
1302    00 00                     add         byte ptr [bx+si],al 
1304    00 00                     add         byte ptr [bx+si],al 
1306    00 00                     add         byte ptr [bx+si],al 
1308    00 00                     add         byte ptr [bx+si],al 
130A    00 00                     add         byte ptr [bx+si],al 
130C    00 00                     add         byte ptr [bx+si],al 
130E    00 00                     add         byte ptr [bx+si],al 
1310    00 00                     add         byte ptr [bx+si],al 
1312    00 00                     add         byte ptr [bx+si],al 
1314    00 00                     add         byte ptr [bx+si],al 
1316    00 00                     add         byte ptr [bx+si],al 
1318    00 00                     add         byte ptr [bx+si],al 
131A    00 00                     add         byte ptr [bx+si],al 
131C    00 00                     add         byte ptr [bx+si],al 
131E    00 00                     add         byte ptr [bx+si],al 
1320    00 00                     add         byte ptr [bx+si],al 
1322    00 00                     add         byte ptr [bx+si],al 
1324    00 00                     add         byte ptr [bx+si],al 
1326    00 00                     add         byte ptr [bx+si],al 
1328    00 00                     add         byte ptr [bx+si],al 
132A    00 00                     add         byte ptr [bx+si],al 
132C    00 00                     add         byte ptr [bx+si],al 
132E    00 00                     add         byte ptr [bx+si],al 
1330    00 00                     add         byte ptr [bx+si],al 
1332    00 00                     add         byte ptr [bx+si],al 
1334    00 00                     add         byte ptr [bx+si],al 
1336    00 00                     add         byte ptr [bx+si],al 
1338    00 00                     add         byte ptr [bx+si],al 
133A    00 00                     add         byte ptr [bx+si],al 
133C    00 00                     add         byte ptr [bx+si],al 
133E    00 00                     add         byte ptr [bx+si],al 
1340    00 00                     add         byte ptr [bx+si],al 
1342    00 00                     add         byte ptr [bx+si],al 
1344    00 00                     add         byte ptr [bx+si],al 
1346    00 00                     add         byte ptr [bx+si],al 
1348    00 00                     add         byte ptr [bx+si],al 
134A    00 00                     add         byte ptr [bx+si],al 
134C    00 00                     add         byte ptr [bx+si],al 
134E    00 00                     add         byte ptr [bx+si],al 
1350    00 00                     add         byte ptr [bx+si],al 
1352    00 00                     add         byte ptr [bx+si],al 
1354    00 00                     add         byte ptr [bx+si],al 
1356    00 00                     add         byte ptr [bx+si],al 
1358    00 00                     add         byte ptr [bx+si],al 
135A    00 00                     add         byte ptr [bx+si],al 
135C    00 00                     add         byte ptr [bx+si],al 
135E    00 00                     add         byte ptr [bx+si],al 
1360    00 00                     add         byte ptr [bx+si],al 
1362    00 00                     add         byte ptr [bx+si],al 
1364    00 00                     add         byte ptr [bx+si],al 
1366    00 00                     add         byte ptr [bx+si],al 
1368    00 00                     add         byte ptr [bx+si],al 
136A    00 00                     add         byte ptr [bx+si],al 
136C    00 00                     add         byte ptr [bx+si],al 
136E    00 00                     add         byte ptr [bx+si],al 
1370    00 00                     add         byte ptr [bx+si],al 
1372    00 00                     add         byte ptr [bx+si],al 
1374    00 00                     add         byte ptr [bx+si],al 
1376    00 00                     add         byte ptr [bx+si],al 
1378    00 00                     add         byte ptr [bx+si],al 
137A    00 00                     add         byte ptr [bx+si],al 
137C    00 00                     add         byte ptr [bx+si],al 
137E    00 00                     add         byte ptr [bx+si],al 
1380    00 00                     add         byte ptr [bx+si],al 
1382    00 00                     add         byte ptr [bx+si],al 
1384    00 00                     add         byte ptr [bx+si],al 
1386    00 00                     add         byte ptr [bx+si],al 
1388    00 00                     add         byte ptr [bx+si],al 
138A    00 00                     add         byte ptr [bx+si],al 
138C    00 00                     add         byte ptr [bx+si],al 
138E    00 00                     add         byte ptr [bx+si],al 
1390    00 00                     add         byte ptr [bx+si],al 
1392    00 00                     add         byte ptr [bx+si],al 
1394    00 00                     add         byte ptr [bx+si],al 
1396    00 00                     add         byte ptr [bx+si],al 
1398    00 00                     add         byte ptr [bx+si],al 
139A    00 00                     add         byte ptr [bx+si],al 
139C    00 00                     add         byte ptr [bx+si],al 
139E    00 00                     add         byte ptr [bx+si],al 
13A0    00 00                     add         byte ptr [bx+si],al 
13A2    00 00                     add         byte ptr [bx+si],al 
13A4    00 00                     add         byte ptr [bx+si],al 
13A6    00 00                     add         byte ptr [bx+si],al 
13A8    00 00                     add         byte ptr [bx+si],al 
13AA    00 00                     add         byte ptr [bx+si],al 
13AC    00 00                     add         byte ptr [bx+si],al 
13AE    00 00                     add         byte ptr [bx+si],al 
13B0    00 00                     add         byte ptr [bx+si],al 
13B2    00 00                     add         byte ptr [bx+si],al 
13B4    00 00                     add         byte ptr [bx+si],al 
13B6    00 00                     add         byte ptr [bx+si],al 
13B8    00 00                     add         byte ptr [bx+si],al 
13BA    00 00                     add         byte ptr [bx+si],al 
13BC    00 00                     add         byte ptr [bx+si],al 
13BE    00 00                     add         byte ptr [bx+si],al 
13C0    00 00                     add         byte ptr [bx+si],al 
13C2    00 00                     add         byte ptr [bx+si],al 
13C4    00 00                     add         byte ptr [bx+si],al 
13C6    00 00                     add         byte ptr [bx+si],al 
13C8    00 00                     add         byte ptr [bx+si],al 
13CA    00 00                     add         byte ptr [bx+si],al 
13CC    00 00                     add         byte ptr [bx+si],al 
13CE    00 00                     add         byte ptr [bx+si],al 
13D0    00 00                     add         byte ptr [bx+si],al 
13D2    00 00                     add         byte ptr [bx+si],al 
13D4    00 00                     add         byte ptr [bx+si],al 
13D6    00 00                     add         byte ptr [bx+si],al 
13D8    00 00                     add         byte ptr [bx+si],al 
13DA    00 00                     add         byte ptr [bx+si],al 
13DC    00 00                     add         byte ptr [bx+si],al 
13DE    00 00                     add         byte ptr [bx+si],al 
13E0    00 00                     add         byte ptr [bx+si],al 
13E2    00 00                     add         byte ptr [bx+si],al 
13E4    00 00                     add         byte ptr [bx+si],al 
13E6    00 00                     add         byte ptr [bx+si],al 
13E8    00 00                     add         byte ptr [bx+si],al 
13EA    00 00                     add         byte ptr [bx+si],al 
13EC    00 00                     add         byte ptr [bx+si],al 
13EE    00 00                     add         byte ptr [bx+si],al 
13F0    00 00                     add         byte ptr [bx+si],al 
13F2    00 00                     add         byte ptr [bx+si],al 
13F4    00 00                     add         byte ptr [bx+si],al 
13F6    00 00                     add         byte ptr [bx+si],al 
13F8    00 00                     add         byte ptr [bx+si],al 
13FA    00 00                     add         byte ptr [bx+si],al 
13FC    00 00                     add         byte ptr [bx+si],al 
13FE    00 00                     add         byte ptr [bx+si],al 
1400    00 00                     add         byte ptr [bx+si],al 
1402    00 00                     add         byte ptr [bx+si],al 
1404    00 00                     add         byte ptr [bx+si],al 
1406    00 00                     add         byte ptr [bx+si],al 
1408    00 00                     add         byte ptr [bx+si],al 
140A    00 00                     add         byte ptr [bx+si],al 
140C    00 00                     add         byte ptr [bx+si],al 
140E    00 00                     add         byte ptr [bx+si],al 
1410    00 00                     add         byte ptr [bx+si],al 
1412    00 00                     add         byte ptr [bx+si],al 
1414    00 00                     add         byte ptr [bx+si],al 
1416    00 00                     add         byte ptr [bx+si],al 
1418    00 00                     add         byte ptr [bx+si],al 
141A    00 00                     add         byte ptr [bx+si],al 
141C    00 00                     add         byte ptr [bx+si],al 
141E    00 00                     add         byte ptr [bx+si],al 
1420    00 00                     add         byte ptr [bx+si],al 
1422    00 00                     add         byte ptr [bx+si],al 
1424    00 00                     add         byte ptr [bx+si],al 
1426    00 00                     add         byte ptr [bx+si],al 
1428    00 00                     add         byte ptr [bx+si],al 
142A    00 00                     add         byte ptr [bx+si],al 
142C    00 00                     add         byte ptr [bx+si],al 
142E    00 00                     add         byte ptr [bx+si],al 
1430    00 00                     add         byte ptr [bx+si],al 
1432    00 00                     add         byte ptr [bx+si],al 
1434    00 00                     add         byte ptr [bx+si],al 
1436    00 00                     add         byte ptr [bx+si],al 
1438    00 00                     add         byte ptr [bx+si],al 
143A    00 00                     add         byte ptr [bx+si],al 
143C    00 00                     add         byte ptr [bx+si],al 
143E    00 00                     add         byte ptr [bx+si],al 
1440    00 00                     add         byte ptr [bx+si],al 
1442    00 00                     add         byte ptr [bx+si],al 
1444    00 00                     add         byte ptr [bx+si],al 
1446    00 00                     add         byte ptr [bx+si],al 
1448    00 00                     add         byte ptr [bx+si],al 
144A    00 00                     add         byte ptr [bx+si],al 
144C    00 00                     add         byte ptr [bx+si],al 
144E    00 00                     add         byte ptr [bx+si],al 
1450    00 00                     add         byte ptr [bx+si],al 
1452    00 00                     add         byte ptr [bx+si],al 
1454    00 00                     add         byte ptr [bx+si],al 
1456    00 00                     add         byte ptr [bx+si],al 
1458    00 00                     add         byte ptr [bx+si],al 
145A    00 00                     add         byte ptr [bx+si],al 
145C    00 00                     add         byte ptr [bx+si],al 
145E    00 00                     add         byte ptr [bx+si],al 
1460    00 00                     add         byte ptr [bx+si],al 
1462    00 00                     add         byte ptr [bx+si],al 
1464    00 00                     add         byte ptr [bx+si],al 
1466    00 00                     add         byte ptr [bx+si],al 
1468    00 00                     add         byte ptr [bx+si],al 
146A    00 00                     add         byte ptr [bx+si],al 
146C    00 00                     add         byte ptr [bx+si],al 
146E    00 00                     add         byte ptr [bx+si],al 
1470    00 00                     add         byte ptr [bx+si],al 
1472    00 00                     add         byte ptr [bx+si],al 
1474    00 00                     add         byte ptr [bx+si],al 
1476    00 00                     add         byte ptr [bx+si],al 
1478    00 00                     add         byte ptr [bx+si],al 
147A    00 00                     add         byte ptr [bx+si],al 
147C    00 00                     add         byte ptr [bx+si],al 
147E    00 00                     add         byte ptr [bx+si],al 
1480    00 00                     add         byte ptr [bx+si],al 
1482    00 00                     add         byte ptr [bx+si],al 
1484    00 00                     add         byte ptr [bx+si],al 
1486    00 00                     add         byte ptr [bx+si],al 
1488    00 00                     add         byte ptr [bx+si],al 
148A    00 00                     add         byte ptr [bx+si],al 
148C    00 00                     add         byte ptr [bx+si],al 
148E    00 00                     add         byte ptr [bx+si],al 
1490    00 00                     add         byte ptr [bx+si],al 
1492    00 00                     add         byte ptr [bx+si],al 
1494    00 00                     add         byte ptr [bx+si],al 
1496    00 00                     add         byte ptr [bx+si],al 
1498    00 00                     add         byte ptr [bx+si],al 
149A    00 00                     add         byte ptr [bx+si],al 
149C    00 00                     add         byte ptr [bx+si],al 
149E    00 00                     add         byte ptr [bx+si],al 
14A0    00 00                     add         byte ptr [bx+si],al 
14A2    00 00                     add         byte ptr [bx+si],al 
14A4    00 00                     add         byte ptr [bx+si],al 
14A6    00 00                     add         byte ptr [bx+si],al 
14A8    00 00                     add         byte ptr [bx+si],al 
14AA    00 00                     add         byte ptr [bx+si],al 
14AC    00 00                     add         byte ptr [bx+si],al 
14AE    00 00                     add         byte ptr [bx+si],al 
14B0    00 00                     add         byte ptr [bx+si],al 
14B2    00 00                     add         byte ptr [bx+si],al 
14B4    00 00                     add         byte ptr [bx+si],al 
14B6    00 00                     add         byte ptr [bx+si],al 
14B8    00 00                     add         byte ptr [bx+si],al 
14BA    00 00                     add         byte ptr [bx+si],al 
14BC    00 00                     add         byte ptr [bx+si],al 
14BE    00 00                     add         byte ptr [bx+si],al 
14C0    00 00                     add         byte ptr [bx+si],al 
14C2    00 00                     add         byte ptr [bx+si],al 
14C4    00 00                     add         byte ptr [bx+si],al 
14C6    00 00                     add         byte ptr [bx+si],al 
14C8    00 00                     add         byte ptr [bx+si],al 
14CA    00 00                     add         byte ptr [bx+si],al 
14CC    00 00                     add         byte ptr [bx+si],al 
14CE    00 00                     add         byte ptr [bx+si],al 
14D0    00 00                     add         byte ptr [bx+si],al 
14D2    00 00                     add         byte ptr [bx+si],al 
14D4    00 00                     add         byte ptr [bx+si],al 
14D6    00 00                     add         byte ptr [bx+si],al 
14D8    00 00                     add         byte ptr [bx+si],al 
14DA    00 00                     add         byte ptr [bx+si],al 
14DC    00 00                     add         byte ptr [bx+si],al 
14DE    00 00                     add         byte ptr [bx+si],al 
14E0    00 00                     add         byte ptr [bx+si],al 
14E2    00 00                     add         byte ptr [bx+si],al 
14E4    00 00                     add         byte ptr [bx+si],al 
14E6    00 00                     add         byte ptr [bx+si],al 
14E8    00 00                     add         byte ptr [bx+si],al 
14EA    00 00                     add         byte ptr [bx+si],al 
14EC    00 00                     add         byte ptr [bx+si],al 
14EE    00 00                     add         byte ptr [bx+si],al 
14F0    00 00                     add         byte ptr [bx+si],al 
14F2    00 00                     add         byte ptr [bx+si],al 
14F4    00 00                     add         byte ptr [bx+si],al 
14F6    00 00                     add         byte ptr [bx+si],al 
14F8    00 00                     add         byte ptr [bx+si],al 
14FA    00 00                     add         byte ptr [bx+si],al 
14FC    00 00                     add         byte ptr [bx+si],al 
14FE    00 00                     add         byte ptr [bx+si],al 
1500    00 00                     add         byte ptr [bx+si],al 
1502    00 00                     add         byte ptr [bx+si],al 
1504    00 00                     add         byte ptr [bx+si],al 
1506    00 00                     add         byte ptr [bx+si],al 
1508    00 00                     add         byte ptr [bx+si],al 
150A    00 00                     add         byte ptr [bx+si],al 
150C    00 00                     add         byte ptr [bx+si],al 
150E    00 00                     add         byte ptr [bx+si],al 
1510    00 00                     add         byte ptr [bx+si],al 
1512    00 00                     add         byte ptr [bx+si],al 
1514    00 00                     add         byte ptr [bx+si],al 
1516    00 00                     add         byte ptr [bx+si],al 
1518    00 00                     add         byte ptr [bx+si],al 
151A    00 00                     add         byte ptr [bx+si],al 
151C    00 00                     add         byte ptr [bx+si],al 
151E    00 00                     add         byte ptr [bx+si],al 
1520    00 00                     add         byte ptr [bx+si],al 
1522    00 00                     add         byte ptr [bx+si],al 
1524    00 00                     add         byte ptr [bx+si],al 
1526    00 00                     add         byte ptr [bx+si],al 
1528    00 00                     add         byte ptr [bx+si],al 
152A    00 00                     add         byte ptr [bx+si],al 
152C    00 00                     add         byte ptr [bx+si],al 
152E    00 00                     add         byte ptr [bx+si],al 
1530    00 00                     add         byte ptr [bx+si],al 
1532    00 00                     add         byte ptr [bx+si],al 
1534    00 00                     add         byte ptr [bx+si],al 
1536    00 00                     add         byte ptr [bx+si],al 
1538    00 00                     add         byte ptr [bx+si],al 
153A    00 00                     add         byte ptr [bx+si],al 
153C    00 00                     add         byte ptr [bx+si],al 
153E    00 00                     add         byte ptr [bx+si],al 
1540    00 00                     add         byte ptr [bx+si],al 
1542    00 00                     add         byte ptr [bx+si],al 
1544    00 00                     add         byte ptr [bx+si],al 
1546    00 00                     add         byte ptr [bx+si],al 
1548    00 00                     add         byte ptr [bx+si],al 
154A    00 00                     add         byte ptr [bx+si],al 
154C    00 00                     add         byte ptr [bx+si],al 
154E    00 00                     add         byte ptr [bx+si],al 
1550    00 00                     add         byte ptr [bx+si],al 
1552    00 00                     add         byte ptr [bx+si],al 
1554    00 00                     add         byte ptr [bx+si],al 
1556    00 00                     add         byte ptr [bx+si],al 
1558    00 00                     add         byte ptr [bx+si],al 
155A    00 00                     add         byte ptr [bx+si],al 
155C    00 00                     add         byte ptr [bx+si],al 
155E    00 00                     add         byte ptr [bx+si],al 
1560    00 00                     add         byte ptr [bx+si],al 
1562    00 00                     add         byte ptr [bx+si],al 
1564    00 00                     add         byte ptr [bx+si],al 
1566    00 00                     add         byte ptr [bx+si],al 
1568    00 00                     add         byte ptr [bx+si],al 
156A    00 00                     add         byte ptr [bx+si],al 
156C    00 00                     add         byte ptr [bx+si],al 
156E    00 00                     add         byte ptr [bx+si],al 
1570    00 00                     add         byte ptr [bx+si],al 
1572    00 00                     add         byte ptr [bx+si],al 
1574    00 00                     add         byte ptr [bx+si],al 
1576    00 00                     add         byte ptr [bx+si],al 
1578    00 00                     add         byte ptr [bx+si],al 
157A    00 00                     add         byte ptr [bx+si],al 
157C    00 00                     add         byte ptr [bx+si],al 
157E    00 00                     add         byte ptr [bx+si],al 
1580    00 00                     add         byte ptr [bx+si],al 
1582    00 00                     add         byte ptr [bx+si],al 
1584    00 00                     add         byte ptr [bx+si],al 
1586    00 00                     add         byte ptr [bx+si],al 
1588    00 00                     add         byte ptr [bx+si],al 
158A    00 00                     add         byte ptr [bx+si],al 
158C    00 00                     add         byte ptr [bx+si],al 
158E    00 00                     add         byte ptr [bx+si],al 
1590    00 00                     add         byte ptr [bx+si],al 
1592    00 00                     add         byte ptr [bx+si],al 
1594    00 00                     add         byte ptr [bx+si],al 
1596    00 00                     add         byte ptr [bx+si],al 
1598    00 00                     add         byte ptr [bx+si],al 
159A    00 00                     add         byte ptr [bx+si],al 
159C    00 00                     add         byte ptr [bx+si],al 
159E    00 00                     add         byte ptr [bx+si],al 
15A0    00 00                     add         byte ptr [bx+si],al 
15A2    00 00                     add         byte ptr [bx+si],al 
15A4    00 00                     add         byte ptr [bx+si],al 
15A6    00 00                     add         byte ptr [bx+si],al 
15A8    00 00                     add         byte ptr [bx+si],al 
15AA    00 00                     add         byte ptr [bx+si],al 
15AC    00 00                     add         byte ptr [bx+si],al 
15AE    00 00                     add         byte ptr [bx+si],al 
15B0    00 00                     add         byte ptr [bx+si],al 
15B2    00 00                     add         byte ptr [bx+si],al 
15B4    00 00                     add         byte ptr [bx+si],al 
15B6    00 00                     add         byte ptr [bx+si],al 
15B8    00 00                     add         byte ptr [bx+si],al 
15BA    00 00                     add         byte ptr [bx+si],al 
15BC    00 00                     add         byte ptr [bx+si],al 
15BE    00 00                     add         byte ptr [bx+si],al 
15C0    00 00                     add         byte ptr [bx+si],al 
15C2    00 00                     add         byte ptr [bx+si],al 
15C4    00 00                     add         byte ptr [bx+si],al 
15C6    00 00                     add         byte ptr [bx+si],al 
15C8    00 00                     add         byte ptr [bx+si],al 
15CA    00 00                     add         byte ptr [bx+si],al 
15CC    00 00                     add         byte ptr [bx+si],al 
15CE    00 00                     add         byte ptr [bx+si],al 
15D0    00 00                     add         byte ptr [bx+si],al 
15D2    00 00                     add         byte ptr [bx+si],al 
15D4    00 00                     add         byte ptr [bx+si],al 
15D6    00 00                     add         byte ptr [bx+si],al 
15D8    00 00                     add         byte ptr [bx+si],al 
15DA    00 00                     add         byte ptr [bx+si],al 
15DC    00 00                     add         byte ptr [bx+si],al 
15DE    00 00                     add         byte ptr [bx+si],al 
15E0    00 00                     add         byte ptr [bx+si],al 
15E2    00 00                     add         byte ptr [bx+si],al 
15E4    00 00                     add         byte ptr [bx+si],al 
15E6    00 00                     add         byte ptr [bx+si],al 
15E8    00 00                     add         byte ptr [bx+si],al 
15EA    00 00                     add         byte ptr [bx+si],al 
15EC    00 00                     add         byte ptr [bx+si],al 
15EE    00 00                     add         byte ptr [bx+si],al 
15F0    00 00                     add         byte ptr [bx+si],al 
15F2    00 00                     add         byte ptr [bx+si],al 
15F4    00 00                     add         byte ptr [bx+si],al 
15F6    00 00                     add         byte ptr [bx+si],al 
15F8    00 00                     add         byte ptr [bx+si],al 
15FA    00 00                     add         byte ptr [bx+si],al 
15FC    00 00                     add         byte ptr [bx+si],al 
15FE    00 00                     add         byte ptr [bx+si],al 
1600    00 00                     add         byte ptr [bx+si],al 
1602    00 00                     add         byte ptr [bx+si],al 
1604    00 00                     add         byte ptr [bx+si],al 
1606    00 00                     add         byte ptr [bx+si],al 
1608    00 00                     add         byte ptr [bx+si],al 
160A    00 00                     add         byte ptr [bx+si],al 
160C    00 00                     add         byte ptr [bx+si],al 
160E    00 00                     add         byte ptr [bx+si],al 
1610    00 00                     add         byte ptr [bx+si],al 
1612    00 00                     add         byte ptr [bx+si],al 
1614    00 00                     add         byte ptr [bx+si],al 
1616    00 00                     add         byte ptr [bx+si],al 
1618    00 00                     add         byte ptr [bx+si],al 
161A    00 00                     add         byte ptr [bx+si],al 
161C    00 00                     add         byte ptr [bx+si],al 
161E    00 00                     add         byte ptr [bx+si],al 
1620    00 00                     add         byte ptr [bx+si],al 
1622    00 00                     add         byte ptr [bx+si],al 
1624    00 00                     add         byte ptr [bx+si],al 
1626    00 00                     add         byte ptr [bx+si],al 
1628    00 00                     add         byte ptr [bx+si],al 
162A    00 00                     add         byte ptr [bx+si],al 
162C    00 00                     add         byte ptr [bx+si],al 
162E    00 00                     add         byte ptr [bx+si],al 
1630    00 00                     add         byte ptr [bx+si],al 
1632    00 00                     add         byte ptr [bx+si],al 
1634    00 00                     add         byte ptr [bx+si],al 
1636    00 00                     add         byte ptr [bx+si],al 
1638    00 00                     add         byte ptr [bx+si],al 
163A    00 00                     add         byte ptr [bx+si],al 
163C    00 00                     add         byte ptr [bx+si],al 
163E    00 00                     add         byte ptr [bx+si],al 
1640    00 00                     add         byte ptr [bx+si],al 
1642    00 00                     add         byte ptr [bx+si],al 
1644    00 00                     add         byte ptr [bx+si],al 
1646    00 00                     add         byte ptr [bx+si],al 
1648    00 00                     add         byte ptr [bx+si],al 
164A    00 00                     add         byte ptr [bx+si],al 
164C    00 00                     add         byte ptr [bx+si],al 
164E    00 00                     add         byte ptr [bx+si],al 
1650    00 00                     add         byte ptr [bx+si],al 
1652    00 00                     add         byte ptr [bx+si],al 
1654    00 00                     add         byte ptr [bx+si],al 
1656    00 00                     add         byte ptr [bx+si],al 
1658    00 00                     add         byte ptr [bx+si],al 
165A    00 00                     add         byte ptr [bx+si],al 
165C    00 00                     add         byte ptr [bx+si],al 
165E    00 00                     add         byte ptr [bx+si],al 
1660    00 00                     add         byte ptr [bx+si],al 
1662    00 00                     add         byte ptr [bx+si],al 
1664    00 00                     add         byte ptr [bx+si],al 
1666    00 00                     add         byte ptr [bx+si],al 
1668    00 00                     add         byte ptr [bx+si],al 
166A    00 00                     add         byte ptr [bx+si],al 
166C    00 00                     add         byte ptr [bx+si],al 
166E    00 00                     add         byte ptr [bx+si],al 
1670    00 00                     add         byte ptr [bx+si],al 
1672    00 00                     add         byte ptr [bx+si],al 
1674    00 00                     add         byte ptr [bx+si],al 
1676    00 00                     add         byte ptr [bx+si],al 
1678    00 00                     add         byte ptr [bx+si],al 
167A    00 00                     add         byte ptr [bx+si],al 
167C    00 00                     add         byte ptr [bx+si],al 
167E    00 00                     add         byte ptr [bx+si],al 
1680    00 00                     add         byte ptr [bx+si],al 
1682    00 00                     add         byte ptr [bx+si],al 
1684    00 00                     add         byte ptr [bx+si],al 
1686    00 00                     add         byte ptr [bx+si],al 
1688    00 00                     add         byte ptr [bx+si],al 
168A    00 00                     add         byte ptr [bx+si],al 
168C    00 00                     add         byte ptr [bx+si],al 
168E    00 00                     add         byte ptr [bx+si],al 
1690    00 00                     add         byte ptr [bx+si],al 
1692    00 00                     add         byte ptr [bx+si],al 
1694    00 00                     add         byte ptr [bx+si],al 
1696    00 00                     add         byte ptr [bx+si],al 
1698    00 00                     add         byte ptr [bx+si],al 
169A    00 00                     add         byte ptr [bx+si],al 
169C    00 00                     add         byte ptr [bx+si],al 
169E    00 00                     add         byte ptr [bx+si],al 
16A0    00 00                     add         byte ptr [bx+si],al 
16A2    00 00                     add         byte ptr [bx+si],al 
16A4    00 00                     add         byte ptr [bx+si],al 
16A6    00 00                     add         byte ptr [bx+si],al 
16A8    00 00                     add         byte ptr [bx+si],al 
16AA    00 00                     add         byte ptr [bx+si],al 
16AC    00 00                     add         byte ptr [bx+si],al 
16AE    00 00                     add         byte ptr [bx+si],al 
16B0    00 00                     add         byte ptr [bx+si],al 
16B2    00 00                     add         byte ptr [bx+si],al 
16B4    00 00                     add         byte ptr [bx+si],al 
16B6    00 00                     add         byte ptr [bx+si],al 
16B8    00 00                     add         byte ptr [bx+si],al 
16BA    00 00                     add         byte ptr [bx+si],al 
16BC    00 00                     add         byte ptr [bx+si],al 
16BE    00 00                     add         byte ptr [bx+si],al 
16C0    00 00                     add         byte ptr [bx+si],al 
16C2    00 00                     add         byte ptr [bx+si],al 
16C4    00 00                     add         byte ptr [bx+si],al 
16C6    00 00                     add         byte ptr [bx+si],al 
16C8    00 00                     add         byte ptr [bx+si],al 
16CA    00 00                     add         byte ptr [bx+si],al 
16CC    00 00                     add         byte ptr [bx+si],al 
16CE    00 00                     add         byte ptr [bx+si],al 
16D0    00 00                     add         byte ptr [bx+si],al 
16D2    00 00                     add         byte ptr [bx+si],al 
16D4    00 00                     add         byte ptr [bx+si],al 
16D6    00 00                     add         byte ptr [bx+si],al 
16D8    00 00                     add         byte ptr [bx+si],al 
16DA    00 00                     add         byte ptr [bx+si],al 
16DC    00 00                     add         byte ptr [bx+si],al 
16DE    00 00                     add         byte ptr [bx+si],al 
16E0    00 00                     add         byte ptr [bx+si],al 
16E2    00 00                     add         byte ptr [bx+si],al 
16E4    00 00                     add         byte ptr [bx+si],al 
16E6    00 00                     add         byte ptr [bx+si],al 
16E8    00 00                     add         byte ptr [bx+si],al 
16EA    00 00                     add         byte ptr [bx+si],al 
16EC    00 00                     add         byte ptr [bx+si],al 
16EE    00 00                     add         byte ptr [bx+si],al 
16F0    00 00                     add         byte ptr [bx+si],al 
16F2    00 00                     add         byte ptr [bx+si],al 
16F4    00 00                     add         byte ptr [bx+si],al 
16F6    00 00                     add         byte ptr [bx+si],al 
16F8    00 00                     add         byte ptr [bx+si],al 
16FA    00 00                     add         byte ptr [bx+si],al 
16FC    00 00                     add         byte ptr [bx+si],al 
16FE    00 00                     add         byte ptr [bx+si],al 
1700    00 00                     add         byte ptr [bx+si],al 
1702    00 00                     add         byte ptr [bx+si],al 
1704    00 00                     add         byte ptr [bx+si],al 
1706    00 00                     add         byte ptr [bx+si],al 
1708    00 00                     add         byte ptr [bx+si],al 
170A    00 00                     add         byte ptr [bx+si],al 
170C    00 00                     add         byte ptr [bx+si],al 
170E    00 00                     add         byte ptr [bx+si],al 
1710    00 00                     add         byte ptr [bx+si],al 
1712    00 00                     add         byte ptr [bx+si],al 
1714    00 00                     add         byte ptr [bx+si],al 
1716    00 00                     add         byte ptr [bx+si],al 
1718    00 00                     add         byte ptr [bx+si],al 
171A    00 00                     add         byte ptr [bx+si],al 
171C    00 00                     add         byte ptr [bx+si],al 
171E    00 00                     add         byte ptr [bx+si],al 
1720    00 00                     add         byte ptr [bx+si],al 
1722    00 00                     add         byte ptr [bx+si],al 
1724    00 00                     add         byte ptr [bx+si],al 
1726    00 00                     add         byte ptr [bx+si],al 
1728    00 00                     add         byte ptr [bx+si],al 
172A    00 00                     add         byte ptr [bx+si],al 
172C    00 00                     add         byte ptr [bx+si],al 
172E    00 00                     add         byte ptr [bx+si],al 
1730    00 00                     add         byte ptr [bx+si],al 
1732    00 00                     add         byte ptr [bx+si],al 
1734    00 00                     add         byte ptr [bx+si],al 
1736    00 00                     add         byte ptr [bx+si],al 
1738    00 00                     add         byte ptr [bx+si],al 
173A    00 00                     add         byte ptr [bx+si],al 
173C    00 00                     add         byte ptr [bx+si],al 
173E    00 00                     add         byte ptr [bx+si],al 
1740    00 00                     add         byte ptr [bx+si],al 
1742    00 00                     add         byte ptr [bx+si],al 
1744    00 00                     add         byte ptr [bx+si],al 
1746    00 00                     add         byte ptr [bx+si],al 
1748    00 00                     add         byte ptr [bx+si],al 
174A    00 00                     add         byte ptr [bx+si],al 
174C    00 00                     add         byte ptr [bx+si],al 
174E    00 00                     add         byte ptr [bx+si],al 
1750    00 00                     add         byte ptr [bx+si],al 
1752    00 00                     add         byte ptr [bx+si],al 
1754    00 00                     add         byte ptr [bx+si],al 
1756    00 00                     add         byte ptr [bx+si],al 
1758    00 00                     add         byte ptr [bx+si],al 
175A    00 00                     add         byte ptr [bx+si],al 
175C    00 00                     add         byte ptr [bx+si],al 
175E    00 00                     add         byte ptr [bx+si],al 
1760    00 00                     add         byte ptr [bx+si],al 
1762    00 00                     add         byte ptr [bx+si],al 
1764    00 00                     add         byte ptr [bx+si],al 
1766    00 00                     add         byte ptr [bx+si],al 
1768    00 00                     add         byte ptr [bx+si],al 
176A    00 00                     add         byte ptr [bx+si],al 
176C    00 00                     add         byte ptr [bx+si],al 
176E    00 00                     add         byte ptr [bx+si],al 
1770    00 00                     add         byte ptr [bx+si],al 
1772    00 00                     add         byte ptr [bx+si],al 
1774    00 00                     add         byte ptr [bx+si],al 
1776    00 00                     add         byte ptr [bx+si],al 
1778    00 00                     add         byte ptr [bx+si],al 
177A    00 00                     add         byte ptr [bx+si],al 
177C    00 00                     add         byte ptr [bx+si],al 
177E    00 00                     add         byte ptr [bx+si],al 
1780    00 00                     add         byte ptr [bx+si],al 
1782    00 00                     add         byte ptr [bx+si],al 
1784    00 00                     add         byte ptr [bx+si],al 
1786    00 00                     add         byte ptr [bx+si],al 
1788    00 00                     add         byte ptr [bx+si],al 
178A    00 00                     add         byte ptr [bx+si],al 
178C    00 00                     add         byte ptr [bx+si],al 
178E    00 00                     add         byte ptr [bx+si],al 
1790    00 00                     add         byte ptr [bx+si],al 
1792    00 00                     add         byte ptr [bx+si],al 
1794    00 00                     add         byte ptr [bx+si],al 
1796    00 00                     add         byte ptr [bx+si],al 
1798    00 00                     add         byte ptr [bx+si],al 
179A    00 00                     add         byte ptr [bx+si],al 
179C    00 00                     add         byte ptr [bx+si],al 
179E    00 00                     add         byte ptr [bx+si],al 
17A0    00 00                     add         byte ptr [bx+si],al 
17A2    00 00                     add         byte ptr [bx+si],al 
17A4    00 00                     add         byte ptr [bx+si],al 
17A6    00 00                     add         byte ptr [bx+si],al 
17A8    00 00                     add         byte ptr [bx+si],al 
17AA    00 00                     add         byte ptr [bx+si],al 
17AC    00 00                     add         byte ptr [bx+si],al 
17AE    00 00                     add         byte ptr [bx+si],al 
17B0    00 00                     add         byte ptr [bx+si],al 
17B2    00 00                     add         byte ptr [bx+si],al 
17B4    00 00                     add         byte ptr [bx+si],al 
17B6    00 00                     add         byte ptr [bx+si],al 
17B8    00 00                     add         byte ptr [bx+si],al 
17BA    00 00                     add         byte ptr [bx+si],al 
17BC    00 00                     add         byte ptr [bx+si],al 
17BE    00 00                     add         byte ptr [bx+si],al 
17C0    00 00                     add         byte ptr [bx+si],al 
17C2    00 00                     add         byte ptr [bx+si],al 
17C4    00 00                     add         byte ptr [bx+si],al 
17C6    00 00                     add         byte ptr [bx+si],al 
17C8    00 00                     add         byte ptr [bx+si],al 
17CA    00 00                     add         byte ptr [bx+si],al 
17CC    00 00                     add         byte ptr [bx+si],al 
17CE    00 00                     add         byte ptr [bx+si],al 
17D0    00 00                     add         byte ptr [bx+si],al 
17D2    00 00                     add         byte ptr [bx+si],al 
17D4    00 00                     add         byte ptr [bx+si],al 
17D6    00 00                     add         byte ptr [bx+si],al 
17D8    00 00                     add         byte ptr [bx+si],al 
17DA    00 00                     add         byte ptr [bx+si],al 
17DC    00 00                     add         byte ptr [bx+si],al 
17DE    00 00                     add         byte ptr [bx+si],al 
17E0    00 00                     add         byte ptr [bx+si],al 
17E2    00 00                     add         byte ptr [bx+si],al 
17E4    00 00                     add         byte ptr [bx+si],al 
17E6    00 00                     add         byte ptr [bx+si],al 
17E8    00 00                     add         byte ptr [bx+si],al 
17EA    00 00                     add         byte ptr [bx+si],al 
17EC    00 00                     add         byte ptr [bx+si],al 
17EE    00 00                     add         byte ptr [bx+si],al 
17F0    00 00                     add         byte ptr [bx+si],al 
17F2    00 00                     add         byte ptr [bx+si],al 
17F4    00 00                     add         byte ptr [bx+si],al 
17F6    00 00                     add         byte ptr [bx+si],al 
17F8    00 00                     add         byte ptr [bx+si],al 
17FA    00 00                     add         byte ptr [bx+si],al 
17FC    00 00                     add         byte ptr [bx+si],al 
17FE    00 00                     add         byte ptr [bx+si],al 
1800    00 00                     add         byte ptr [bx+si],al 
1802    00 00                     add         byte ptr [bx+si],al 
1804    00 00                     add         byte ptr [bx+si],al 
1806    00 00                     add         byte ptr [bx+si],al 
1808    00 00                     add         byte ptr [bx+si],al 
180A    00 00                     add         byte ptr [bx+si],al 
180C    00 00                     add         byte ptr [bx+si],al 
180E    00 00                     add         byte ptr [bx+si],al 
1810    00 00                     add         byte ptr [bx+si],al 
1812    00 00                     add         byte ptr [bx+si],al 
1814    00 00                     add         byte ptr [bx+si],al 
1816    00 00                     add         byte ptr [bx+si],al 
1818    00 00                     add         byte ptr [bx+si],al 
181A    00 00                     add         byte ptr [bx+si],al 
181C    00 00                     add         byte ptr [bx+si],al 
181E    00 00                     add         byte ptr [bx+si],al 
1820    00 00                     add         byte ptr [bx+si],al 
1822    00 00                     add         byte ptr [bx+si],al 
1824    00 00                     add         byte ptr [bx+si],al 
1826    00 00                     add         byte ptr [bx+si],al 
1828    00 00                     add         byte ptr [bx+si],al 
182A    00 00                     add         byte ptr [bx+si],al 
182C    00 00                     add         byte ptr [bx+si],al 
182E    00 00                     add         byte ptr [bx+si],al 
1830    00 00                     add         byte ptr [bx+si],al 
1832    00 00                     add         byte ptr [bx+si],al 
1834    00 00                     add         byte ptr [bx+si],al 
1836    00 00                     add         byte ptr [bx+si],al 
1838    00 00                     add         byte ptr [bx+si],al 
183A    00 00                     add         byte ptr [bx+si],al 
183C    00 00                     add         byte ptr [bx+si],al 
183E    00 00                     add         byte ptr [bx+si],al 
1840    00                                              .
1841                          L$40:
1841    1E                        push        ds 
1842    B8 40 00 8E                                     DD	ds:[0x40b8]
1846    D8 A1 13 00               fsub        dword ptr 0x13[bx+di] 
184A    1F                        pop         ds 
184B    CF                        iret        
184C    00                                              .
184D                          L$41:
184D    1E                        push        ds 
184E    B8 40 00 8E                                     DD	ds:[0x40b8]
1852    D8 A1 10 00               fsub        dword ptr 0x10[bx+di] 
1856    1F                        pop         ds 
1857    CF                        iret        
1858    00                                              .
1859                          L$42:
1859    FB                        sti         
185A    1E                        push        ds 
185B    06                        push        es 
185C    80 FC 86                  cmp         ah,0x86 
185F    74 20                     je          L$45 
1861    80 FC E8                  cmp         ah,0xe8 
1864    74 1B                     je          L$45 
1866    50                        push        ax 
1867    51                        push        cx 
1868    52                        push        dx 
1869    53                        push        bx 
186A    55                        push        bp 
186B    56                        push        si 
186C    57                        push        di 
186D    80 FC C2                  cmp         ah,0xc2 
1870    74 05                     je          L$43 
1872    E8 00 00                  call        _int15_function 
1875    EB 03                     jmp         L$44 
1877                          L$43:
1877    E8 00 00                  call        _int15_function_mouse 
187A                          L$44:
187A    5F                        pop         di 
187B    5E                        pop         si 
187C    5D                        pop         bp 
187D    5B                        pop         bx 
187E    5A                        pop         dx 
187F    59                        pop         cx 
1880    58                        pop         ax 
1881                          L$45:
1881    07                        pop         es 
1882    1F                        pop         ds 
1883    FA                        cli         
1884    CF                        iret        
1885    00 00                     add         byte ptr [bx+si],al 
1887    00 00                     add         byte ptr [bx+si],al 
1889    00 00                     add         byte ptr [bx+si],al 
188B    00 00                     add         byte ptr [bx+si],al 
188D    00 00                     add         byte ptr [bx+si],al 
188F    00 00                     add         byte ptr [bx+si],al 
1891    00 00                     add         byte ptr [bx+si],al 
1893    00 00                     add         byte ptr [bx+si],al 
1895    00 00                     add         byte ptr [bx+si],al 
1897    00 00                     add         byte ptr [bx+si],al 
1899    00 00                     add         byte ptr [bx+si],al 
189B    00 00                     add         byte ptr [bx+si],al 
189D    00 00                     add         byte ptr [bx+si],al 
189F    00 00                     add         byte ptr [bx+si],al 
18A1    00 00                     add         byte ptr [bx+si],al 
18A3    00 00                     add         byte ptr [bx+si],al 
18A5    00 00                     add         byte ptr [bx+si],al 
18A7    00 00                     add         byte ptr [bx+si],al 
18A9    00 00                     add         byte ptr [bx+si],al 
18AB    00 00                     add         byte ptr [bx+si],al 
18AD    00 00                     add         byte ptr [bx+si],al 
18AF    00 00                     add         byte ptr [bx+si],al 
18B1    00 00                     add         byte ptr [bx+si],al 
18B3    00 00                     add         byte ptr [bx+si],al 
18B5    00 00                     add         byte ptr [bx+si],al 
18B7    00 00                     add         byte ptr [bx+si],al 
18B9    00 00                     add         byte ptr [bx+si],al 
18BB    00 00                     add         byte ptr [bx+si],al 
18BD    00 00                     add         byte ptr [bx+si],al 
18BF    00 00                     add         byte ptr [bx+si],al 
18C1    00 00                     add         byte ptr [bx+si],al 
18C3    00 00                     add         byte ptr [bx+si],al 
18C5    00 00                     add         byte ptr [bx+si],al 
18C7    00 00                     add         byte ptr [bx+si],al 
18C9    00 00                     add         byte ptr [bx+si],al 
18CB    00 00                     add         byte ptr [bx+si],al 
18CD    00 00                     add         byte ptr [bx+si],al 
18CF    00 00                     add         byte ptr [bx+si],al 
18D1    00 00                     add         byte ptr [bx+si],al 
18D3    00 00                     add         byte ptr [bx+si],al 
18D5    00 00                     add         byte ptr [bx+si],al 
18D7    00 00                     add         byte ptr [bx+si],al 
18D9    00 00                     add         byte ptr [bx+si],al 
18DB    00 00                     add         byte ptr [bx+si],al 
18DD    00 00                     add         byte ptr [bx+si],al 
18DF    00 00                     add         byte ptr [bx+si],al 
18E1    00 00                     add         byte ptr [bx+si],al 
18E3    00 00                     add         byte ptr [bx+si],al 
18E5    00 00                     add         byte ptr [bx+si],al 
18E7    00 00                     add         byte ptr [bx+si],al 
18E9    00 00                     add         byte ptr [bx+si],al 
18EB    00 00                     add         byte ptr [bx+si],al 
18ED    00 00                     add         byte ptr [bx+si],al 
18EF    00 00                     add         byte ptr [bx+si],al 
18F1    00 00                     add         byte ptr [bx+si],al 
18F3    00 00                     add         byte ptr [bx+si],al 
18F5    00 00                     add         byte ptr [bx+si],al 
18F7    00 00                     add         byte ptr [bx+si],al 
18F9    00 00                     add         byte ptr [bx+si],al 
18FB    00 00                     add         byte ptr [bx+si],al 
18FD    00 00                     add         byte ptr [bx+si],al 
18FF    00 00                     add         byte ptr [bx+si],al 
1901    00 00                     add         byte ptr [bx+si],al 
1903    00 00                     add         byte ptr [bx+si],al 
1905    00 00                     add         byte ptr [bx+si],al 
1907    00 00                     add         byte ptr [bx+si],al 
1909    00 00                     add         byte ptr [bx+si],al 
190B    00 00                     add         byte ptr [bx+si],al 
190D    00 00                     add         byte ptr [bx+si],al 
190F    00 00                     add         byte ptr [bx+si],al 
1911    00 00                     add         byte ptr [bx+si],al 
1913    00 00                     add         byte ptr [bx+si],al 
1915    00 00                     add         byte ptr [bx+si],al 
1917    00 00                     add         byte ptr [bx+si],al 
1919    00 00                     add         byte ptr [bx+si],al 
191B    00 00                     add         byte ptr [bx+si],al 
191D    00 00                     add         byte ptr [bx+si],al 
191F    00 00                     add         byte ptr [bx+si],al 
1921    00 00                     add         byte ptr [bx+si],al 
1923    00 00                     add         byte ptr [bx+si],al 
1925    00 00                     add         byte ptr [bx+si],al 
1927    00 00                     add         byte ptr [bx+si],al 
1929    00 00                     add         byte ptr [bx+si],al 
192B    00 00                     add         byte ptr [bx+si],al 
192D    00 00                     add         byte ptr [bx+si],al 
192F    00 00                     add         byte ptr [bx+si],al 
1931    00 00                     add         byte ptr [bx+si],al 
1933    00 00                     add         byte ptr [bx+si],al 
1935    00 00                     add         byte ptr [bx+si],al 
1937    00 00                     add         byte ptr [bx+si],al 
1939    00 00                     add         byte ptr [bx+si],al 
193B    00 00                     add         byte ptr [bx+si],al 
193D    00 00                     add         byte ptr [bx+si],al 
193F    00 00                     add         byte ptr [bx+si],al 
1941    00 00                     add         byte ptr [bx+si],al 
1943    00 00                     add         byte ptr [bx+si],al 
1945    00 00                     add         byte ptr [bx+si],al 
1947    00 00                     add         byte ptr [bx+si],al 
1949    00 00                     add         byte ptr [bx+si],al 
194B    00 00                     add         byte ptr [bx+si],al 
194D    00 00                     add         byte ptr [bx+si],al 
194F    00 00                     add         byte ptr [bx+si],al 
1951    00 00                     add         byte ptr [bx+si],al 
1953    00 00                     add         byte ptr [bx+si],al 
1955    00 00                     add         byte ptr [bx+si],al 
1957    00 00                     add         byte ptr [bx+si],al 
1959    00 00                     add         byte ptr [bx+si],al 
195B    00 00                     add         byte ptr [bx+si],al 
195D    00 00                     add         byte ptr [bx+si],al 
195F    00 00                     add         byte ptr [bx+si],al 
1961    00 00                     add         byte ptr [bx+si],al 
1963    00 00                     add         byte ptr [bx+si],al 
1965    00 00                     add         byte ptr [bx+si],al 
1967    00 00                     add         byte ptr [bx+si],al 
1969    00 00                     add         byte ptr [bx+si],al 
196B    00 00                     add         byte ptr [bx+si],al 
196D    00 00                     add         byte ptr [bx+si],al 
196F    00 00                     add         byte ptr [bx+si],al 
1971    00 00                     add         byte ptr [bx+si],al 
1973    00 00                     add         byte ptr [bx+si],al 
1975    00 00                     add         byte ptr [bx+si],al 
1977    00 00                     add         byte ptr [bx+si],al 
1979    00 00                     add         byte ptr [bx+si],al 
197B    00 00                     add         byte ptr [bx+si],al 
197D    00 00                     add         byte ptr [bx+si],al 
197F    00 00                     add         byte ptr [bx+si],al 
1981    00 00                     add         byte ptr [bx+si],al 
1983    00 00                     add         byte ptr [bx+si],al 
1985    00 00                     add         byte ptr [bx+si],al 
1987    00 00                     add         byte ptr [bx+si],al 
1989    00 00                     add         byte ptr [bx+si],al 
198B    00 00                     add         byte ptr [bx+si],al 
198D    00 00                     add         byte ptr [bx+si],al 
198F    00 00                     add         byte ptr [bx+si],al 
1991    00 00                     add         byte ptr [bx+si],al 
1993    00 00                     add         byte ptr [bx+si],al 
1995    00 00                     add         byte ptr [bx+si],al 
1997    00 00                     add         byte ptr [bx+si],al 
1999    00 00                     add         byte ptr [bx+si],al 
199B    00 00                     add         byte ptr [bx+si],al 
199D    00 00                     add         byte ptr [bx+si],al 
199F    00 00                     add         byte ptr [bx+si],al 
19A1    00 00                     add         byte ptr [bx+si],al 
19A3    00 00                     add         byte ptr [bx+si],al 
19A5    00 00                     add         byte ptr [bx+si],al 
19A7    00 00                     add         byte ptr [bx+si],al 
19A9    00 00                     add         byte ptr [bx+si],al 
19AB    00 00                     add         byte ptr [bx+si],al 
19AD    00 00                     add         byte ptr [bx+si],al 
19AF    00 00                     add         byte ptr [bx+si],al 
19B1    00 00                     add         byte ptr [bx+si],al 
19B3    00 00                     add         byte ptr [bx+si],al 
19B5    00 00                     add         byte ptr [bx+si],al 
19B7    00 00                     add         byte ptr [bx+si],al 
19B9    00 00                     add         byte ptr [bx+si],al 
19BB    00 00                     add         byte ptr [bx+si],al 
19BD    00 00                     add         byte ptr [bx+si],al 
19BF    00 00                     add         byte ptr [bx+si],al 
19C1    00 00                     add         byte ptr [bx+si],al 
19C3    00 00                     add         byte ptr [bx+si],al 
19C5    00 00                     add         byte ptr [bx+si],al 
19C7    00 00                     add         byte ptr [bx+si],al 
19C9    00 00                     add         byte ptr [bx+si],al 
19CB    00 00                     add         byte ptr [bx+si],al 
19CD    00 00                     add         byte ptr [bx+si],al 
19CF    00 00                     add         byte ptr [bx+si],al 
19D1    00 00                     add         byte ptr [bx+si],al 
19D3    00 00                     add         byte ptr [bx+si],al 
19D5    00 00                     add         byte ptr [bx+si],al 
19D7    00 00                     add         byte ptr [bx+si],al 
19D9    00 00                     add         byte ptr [bx+si],al 
19DB    00 00                     add         byte ptr [bx+si],al 
19DD    00 00                     add         byte ptr [bx+si],al 
19DF    00 00                     add         byte ptr [bx+si],al 
19E1    00 00                     add         byte ptr [bx+si],al 
19E3    00 00                     add         byte ptr [bx+si],al 
19E5    00 00                     add         byte ptr [bx+si],al 
19E7    00 00                     add         byte ptr [bx+si],al 
19E9    00 00                     add         byte ptr [bx+si],al 
19EB    00 00                     add         byte ptr [bx+si],al 
19ED    00 00                     add         byte ptr [bx+si],al 
19EF    00 00                     add         byte ptr [bx+si],al 
19F1    00 00                     add         byte ptr [bx+si],al 
19F3    00 00                     add         byte ptr [bx+si],al 
19F5    00 00                     add         byte ptr [bx+si],al 
19F7    00 00                     add         byte ptr [bx+si],al 
19F9    00 00                     add         byte ptr [bx+si],al 
19FB    00 00                     add         byte ptr [bx+si],al 
19FD    00 00                     add         byte ptr [bx+si],al 
19FF    00 00                     add         byte ptr [bx+si],al 
1A01    00 00                     add         byte ptr [bx+si],al 
1A03    00 00                     add         byte ptr [bx+si],al 
1A05    00 00                     add         byte ptr [bx+si],al 
1A07    00 00                     add         byte ptr [bx+si],al 
1A09    00 00                     add         byte ptr [bx+si],al 
1A0B    00 00                     add         byte ptr [bx+si],al 
1A0D    00 00                     add         byte ptr [bx+si],al 
1A0F    00 00                     add         byte ptr [bx+si],al 
1A11    00 00                     add         byte ptr [bx+si],al 
1A13    00 00                     add         byte ptr [bx+si],al 
1A15    00 00                     add         byte ptr [bx+si],al 
1A17    00 00                     add         byte ptr [bx+si],al 
1A19    00 00                     add         byte ptr [bx+si],al 
1A1B    00 00                     add         byte ptr [bx+si],al 
1A1D    00 00                     add         byte ptr [bx+si],al 
1A1F    00 00                     add         byte ptr [bx+si],al 
1A21    00 00                     add         byte ptr [bx+si],al 
1A23    00 00                     add         byte ptr [bx+si],al 
1A25    00 00                     add         byte ptr [bx+si],al 
1A27    00 00                     add         byte ptr [bx+si],al 
1A29    00 00                     add         byte ptr [bx+si],al 
1A2B    00 00                     add         byte ptr [bx+si],al 
1A2D    00 00                     add         byte ptr [bx+si],al 
1A2F    00 00                     add         byte ptr [bx+si],al 
1A31    00 00                     add         byte ptr [bx+si],al 
1A33    00 00                     add         byte ptr [bx+si],al 
1A35    00 00                     add         byte ptr [bx+si],al 
1A37    00 00                     add         byte ptr [bx+si],al 
1A39    00 00                     add         byte ptr [bx+si],al 
1A3B    00 00                     add         byte ptr [bx+si],al 
1A3D    00 00                     add         byte ptr [bx+si],al 
1A3F    00 00                     add         byte ptr [bx+si],al 
1A41    00 00                     add         byte ptr [bx+si],al 
1A43    00 00                     add         byte ptr [bx+si],al 
1A45    00 00                     add         byte ptr [bx+si],al 
1A47    00 00                     add         byte ptr [bx+si],al 
1A49    00 00                     add         byte ptr [bx+si],al 
1A4B    00 00                     add         byte ptr [bx+si],al 
1A4D    00 00                     add         byte ptr [bx+si],al 
1A4F    00 00                     add         byte ptr [bx+si],al 
1A51    00 00                     add         byte ptr [bx+si],al 
1A53    00 00                     add         byte ptr [bx+si],al 
1A55    00 00                     add         byte ptr [bx+si],al 
1A57    00 00                     add         byte ptr [bx+si],al 
1A59    00 00                     add         byte ptr [bx+si],al 
1A5B    00 00                     add         byte ptr [bx+si],al 
1A5D    00 00                     add         byte ptr [bx+si],al 
1A5F    00 00                     add         byte ptr [bx+si],al 
1A61    00 00                     add         byte ptr [bx+si],al 
1A63    00 00                     add         byte ptr [bx+si],al 
1A65    00 00                     add         byte ptr [bx+si],al 
1A67    00 00                     add         byte ptr [bx+si],al 
1A69    00 00                     add         byte ptr [bx+si],al 
1A6B    00 00                     add         byte ptr [bx+si],al 
1A6D    00 00                     add         byte ptr [bx+si],al 
1A6F    00 00                     add         byte ptr [bx+si],al 
1A71    00 00                     add         byte ptr [bx+si],al 
1A73    00 00                     add         byte ptr [bx+si],al 
1A75    00 00                     add         byte ptr [bx+si],al 
1A77    00 00                     add         byte ptr [bx+si],al 
1A79    00 00                     add         byte ptr [bx+si],al 
1A7B    00 00                     add         byte ptr [bx+si],al 
1A7D    00 00                     add         byte ptr [bx+si],al 
1A7F    00 00                     add         byte ptr [bx+si],al 
1A81    00 00                     add         byte ptr [bx+si],al 
1A83    00 00                     add         byte ptr [bx+si],al 
1A85    00 00                     add         byte ptr [bx+si],al 
1A87    00 00                     add         byte ptr [bx+si],al 
1A89    00 00                     add         byte ptr [bx+si],al 
1A8B    00 00                     add         byte ptr [bx+si],al 
1A8D    00 00                     add         byte ptr [bx+si],al 
1A8F    00 00                     add         byte ptr [bx+si],al 
1A91    00 00                     add         byte ptr [bx+si],al 
1A93    00 00                     add         byte ptr [bx+si],al 
1A95    00 00                     add         byte ptr [bx+si],al 
1A97    00 00                     add         byte ptr [bx+si],al 
1A99    00 00                     add         byte ptr [bx+si],al 
1A9B    00 00                     add         byte ptr [bx+si],al 
1A9D    00 00                     add         byte ptr [bx+si],al 
1A9F    00 00                     add         byte ptr [bx+si],al 
1AA1    00 00                     add         byte ptr [bx+si],al 
1AA3    00 00                     add         byte ptr [bx+si],al 
1AA5    00 00                     add         byte ptr [bx+si],al 
1AA7    00 00                     add         byte ptr [bx+si],al 
1AA9    00 00                     add         byte ptr [bx+si],al 
1AAB    00 00                     add         byte ptr [bx+si],al 
1AAD    00 00                     add         byte ptr [bx+si],al 
1AAF    00 00                     add         byte ptr [bx+si],al 
1AB1    00 00                     add         byte ptr [bx+si],al 
1AB3    00 00                     add         byte ptr [bx+si],al 
1AB5    00 00                     add         byte ptr [bx+si],al 
1AB7    00 00                     add         byte ptr [bx+si],al 
1AB9    00 00                     add         byte ptr [bx+si],al 
1ABB    00 00                     add         byte ptr [bx+si],al 
1ABD    00 00                     add         byte ptr [bx+si],al 
1ABF    00 00                     add         byte ptr [bx+si],al 
1AC1    00 00                     add         byte ptr [bx+si],al 
1AC3    00 00                     add         byte ptr [bx+si],al 
1AC5    00 00                     add         byte ptr [bx+si],al 
1AC7    00 00                     add         byte ptr [bx+si],al 
1AC9    00 00                     add         byte ptr [bx+si],al 
1ACB    00 00                     add         byte ptr [bx+si],al 
1ACD    00 00                     add         byte ptr [bx+si],al 
1ACF    00 00                     add         byte ptr [bx+si],al 
1AD1    00 00                     add         byte ptr [bx+si],al 
1AD3    00 00                     add         byte ptr [bx+si],al 
1AD5    00 00                     add         byte ptr [bx+si],al 
1AD7    00 00                     add         byte ptr [bx+si],al 
1AD9    00 00                     add         byte ptr [bx+si],al 
1ADB    00 00                     add         byte ptr [bx+si],al 
1ADD    00 00                     add         byte ptr [bx+si],al 
1ADF    00 00                     add         byte ptr [bx+si],al 
1AE1    00 00                     add         byte ptr [bx+si],al 
1AE3    00 00                     add         byte ptr [bx+si],al 
1AE5    00 00                     add         byte ptr [bx+si],al 
1AE7    00 00                     add         byte ptr [bx+si],al 
1AE9    00 00                     add         byte ptr [bx+si],al 
1AEB    00 00                     add         byte ptr [bx+si],al 
1AED    00 00                     add         byte ptr [bx+si],al 
1AEF    00 00                     add         byte ptr [bx+si],al 
1AF1    00 00                     add         byte ptr [bx+si],al 
1AF3    00 00                     add         byte ptr [bx+si],al 
1AF5    00 00                     add         byte ptr [bx+si],al 
1AF7    00 00                     add         byte ptr [bx+si],al 
1AF9    00 00                     add         byte ptr [bx+si],al 
1AFB    00 00                     add         byte ptr [bx+si],al 
1AFD    00 00                     add         byte ptr [bx+si],al 
1AFF    00 00                     add         byte ptr [bx+si],al 
1B01    00 00                     add         byte ptr [bx+si],al 
1B03    00 00                     add         byte ptr [bx+si],al 
1B05    00 00                     add         byte ptr [bx+si],al 
1B07    00 00                     add         byte ptr [bx+si],al 
1B09    00 00                     add         byte ptr [bx+si],al 
1B0B    00 00                     add         byte ptr [bx+si],al 
1B0D    00 00                     add         byte ptr [bx+si],al 
1B0F    00 00                     add         byte ptr [bx+si],al 
1B11    00 00                     add         byte ptr [bx+si],al 
1B13    00 00                     add         byte ptr [bx+si],al 
1B15    00 00                     add         byte ptr [bx+si],al 
1B17    00 00                     add         byte ptr [bx+si],al 
1B19    00 00                     add         byte ptr [bx+si],al 
1B1B    00 00                     add         byte ptr [bx+si],al 
1B1D    00 00                     add         byte ptr [bx+si],al 
1B1F    00 00                     add         byte ptr [bx+si],al 
1B21    00 00                     add         byte ptr [bx+si],al 
1B23    00 00                     add         byte ptr [bx+si],al 
1B25    00 00                     add         byte ptr [bx+si],al 
1B27    00 00                     add         byte ptr [bx+si],al 
1B29    00 00                     add         byte ptr [bx+si],al 
1B2B    00 00                     add         byte ptr [bx+si],al 
1B2D    00 00                     add         byte ptr [bx+si],al 
1B2F    00 00                     add         byte ptr [bx+si],al 
1B31    00 00                     add         byte ptr [bx+si],al 
1B33    00 00                     add         byte ptr [bx+si],al 
1B35    00 00                     add         byte ptr [bx+si],al 
1B37    00 00                     add         byte ptr [bx+si],al 
1B39    00 00                     add         byte ptr [bx+si],al 
1B3B    00 00                     add         byte ptr [bx+si],al 
1B3D    00 00                     add         byte ptr [bx+si],al 
1B3F    00 00                     add         byte ptr [bx+si],al 
1B41    00 00                     add         byte ptr [bx+si],al 
1B43    00 00                     add         byte ptr [bx+si],al 
1B45    00 00                     add         byte ptr [bx+si],al 
1B47    00 00                     add         byte ptr [bx+si],al 
1B49    00 00                     add         byte ptr [bx+si],al 
1B4B    00 00                     add         byte ptr [bx+si],al 
1B4D    00 00                     add         byte ptr [bx+si],al 
1B4F    00 00                     add         byte ptr [bx+si],al 
1B51    00 00                     add         byte ptr [bx+si],al 
1B53    00 00                     add         byte ptr [bx+si],al 
1B55    00 00                     add         byte ptr [bx+si],al 
1B57    00 00                     add         byte ptr [bx+si],al 
1B59    00 00                     add         byte ptr [bx+si],al 
1B5B    00 00                     add         byte ptr [bx+si],al 
1B5D    00 00                     add         byte ptr [bx+si],al 
1B5F    00 00                     add         byte ptr [bx+si],al 
1B61    00 00                     add         byte ptr [bx+si],al 
1B63    00 00                     add         byte ptr [bx+si],al 
1B65    00 00                     add         byte ptr [bx+si],al 
1B67    00 00                     add         byte ptr [bx+si],al 
1B69    00 00                     add         byte ptr [bx+si],al 
1B6B    00 00                     add         byte ptr [bx+si],al 
1B6D    00 00                     add         byte ptr [bx+si],al 
1B6F    00 00                     add         byte ptr [bx+si],al 
1B71    00 00                     add         byte ptr [bx+si],al 
1B73    00 00                     add         byte ptr [bx+si],al 
1B75    00 00                     add         byte ptr [bx+si],al 
1B77    00 00                     add         byte ptr [bx+si],al 
1B79    00 00                     add         byte ptr [bx+si],al 
1B7B    00 00                     add         byte ptr [bx+si],al 
1B7D    00 00                     add         byte ptr [bx+si],al 
1B7F    00 00                     add         byte ptr [bx+si],al 
1B81    00 00                     add         byte ptr [bx+si],al 
1B83    00 00                     add         byte ptr [bx+si],al 
1B85    00 00                     add         byte ptr [bx+si],al 
1B87    00 00                     add         byte ptr [bx+si],al 
1B89    00 00                     add         byte ptr [bx+si],al 
1B8B    00 00                     add         byte ptr [bx+si],al 
1B8D    00 00                     add         byte ptr [bx+si],al 
1B8F    00 00                     add         byte ptr [bx+si],al 
1B91    00 00                     add         byte ptr [bx+si],al 
1B93    00 00                     add         byte ptr [bx+si],al 
1B95    00 00                     add         byte ptr [bx+si],al 
1B97    00 00                     add         byte ptr [bx+si],al 
1B99    00 00                     add         byte ptr [bx+si],al 
1B9B    00 00                     add         byte ptr [bx+si],al 
1B9D    00 00                     add         byte ptr [bx+si],al 
1B9F    00 00                     add         byte ptr [bx+si],al 
1BA1    00 00                     add         byte ptr [bx+si],al 
1BA3    00 00                     add         byte ptr [bx+si],al 
1BA5    00 00                     add         byte ptr [bx+si],al 
1BA7    00 00                     add         byte ptr [bx+si],al 
1BA9    00 00                     add         byte ptr [bx+si],al 
1BAB    00 00                     add         byte ptr [bx+si],al 
1BAD    00 00                     add         byte ptr [bx+si],al 
1BAF    00 00                     add         byte ptr [bx+si],al 
1BB1    00 00                     add         byte ptr [bx+si],al 
1BB3    00 00                     add         byte ptr [bx+si],al 
1BB5    00 00                     add         byte ptr [bx+si],al 
1BB7    00 00                     add         byte ptr [bx+si],al 
1BB9    00 00                     add         byte ptr [bx+si],al 
1BBB    00 00                     add         byte ptr [bx+si],al 
1BBD    00 00                     add         byte ptr [bx+si],al 
1BBF    00 00                     add         byte ptr [bx+si],al 
1BC1    00 00                     add         byte ptr [bx+si],al 
1BC3    00 00                     add         byte ptr [bx+si],al 
1BC5    00 00                     add         byte ptr [bx+si],al 
1BC7    00 00                     add         byte ptr [bx+si],al 
1BC9    00 00                     add         byte ptr [bx+si],al 
1BCB    00 00                     add         byte ptr [bx+si],al 
1BCD    00 00                     add         byte ptr [bx+si],al 
1BCF    00 00                     add         byte ptr [bx+si],al 
1BD1    00 00                     add         byte ptr [bx+si],al 
1BD3    00 00                     add         byte ptr [bx+si],al 
1BD5    00 00                     add         byte ptr [bx+si],al 
1BD7    00 00                     add         byte ptr [bx+si],al 
1BD9    00 00                     add         byte ptr [bx+si],al 
1BDB    00 00                     add         byte ptr [bx+si],al 
1BDD    00 00                     add         byte ptr [bx+si],al 
1BDF    00 00                     add         byte ptr [bx+si],al 
1BE1    00 00                     add         byte ptr [bx+si],al 
1BE3    00 00                     add         byte ptr [bx+si],al 
1BE5    00 00                     add         byte ptr [bx+si],al 
1BE7    00 00                     add         byte ptr [bx+si],al 
1BE9    00 00                     add         byte ptr [bx+si],al 
1BEB    00 00                     add         byte ptr [bx+si],al 
1BED    00 00                     add         byte ptr [bx+si],al 
1BEF    00 00                     add         byte ptr [bx+si],al 
1BF1    00 00                     add         byte ptr [bx+si],al 
1BF3    00 00                     add         byte ptr [bx+si],al 
1BF5    00 00                     add         byte ptr [bx+si],al 
1BF7    00 00                     add         byte ptr [bx+si],al 
1BF9    00 00                     add         byte ptr [bx+si],al 
1BFB    00 00                     add         byte ptr [bx+si],al 
1BFD    00 00                     add         byte ptr [bx+si],al 
1BFF    00 00                     add         byte ptr [bx+si],al 
1C01    00 00                     add         byte ptr [bx+si],al 
1C03    00 00                     add         byte ptr [bx+si],al 
1C05    00 00                     add         byte ptr [bx+si],al 
1C07    00 00                     add         byte ptr [bx+si],al 
1C09    00 00                     add         byte ptr [bx+si],al 
1C0B    00 00                     add         byte ptr [bx+si],al 
1C0D    00 00                     add         byte ptr [bx+si],al 
1C0F    00 00                     add         byte ptr [bx+si],al 
1C11    00 00                     add         byte ptr [bx+si],al 
1C13    00 00                     add         byte ptr [bx+si],al 
1C15    00 00                     add         byte ptr [bx+si],al 
1C17    00 00                     add         byte ptr [bx+si],al 
1C19    00 00                     add         byte ptr [bx+si],al 
1C1B    00 00                     add         byte ptr [bx+si],al 
1C1D    00 00                     add         byte ptr [bx+si],al 
1C1F    00 00                     add         byte ptr [bx+si],al 
1C21    00 00                     add         byte ptr [bx+si],al 
1C23    00 00                     add         byte ptr [bx+si],al 
1C25    00 00                     add         byte ptr [bx+si],al 
1C27    00 00                     add         byte ptr [bx+si],al 
1C29    00 00                     add         byte ptr [bx+si],al 
1C2B    00 00                     add         byte ptr [bx+si],al 
1C2D    00 00                     add         byte ptr [bx+si],al 
1C2F    00 00                     add         byte ptr [bx+si],al 
1C31    00 00                     add         byte ptr [bx+si],al 
1C33    00 00                     add         byte ptr [bx+si],al 
1C35    00 00                     add         byte ptr [bx+si],al 
1C37    00 00                     add         byte ptr [bx+si],al 
1C39    00 00                     add         byte ptr [bx+si],al 
1C3B    00 00                     add         byte ptr [bx+si],al 
1C3D    00 00                     add         byte ptr [bx+si],al 
1C3F    00 00                     add         byte ptr [bx+si],al 
1C41    00 00                     add         byte ptr [bx+si],al 
1C43    00 00                     add         byte ptr [bx+si],al 
1C45    00 00                     add         byte ptr [bx+si],al 
1C47    00 00                     add         byte ptr [bx+si],al 
1C49    00 00                     add         byte ptr [bx+si],al 
1C4B    00 00                     add         byte ptr [bx+si],al 
1C4D    00 00                     add         byte ptr [bx+si],al 
1C4F    00 00                     add         byte ptr [bx+si],al 
1C51    00 00                     add         byte ptr [bx+si],al 
1C53    00 00                     add         byte ptr [bx+si],al 
1C55    00 00                     add         byte ptr [bx+si],al 
1C57    00 00                     add         byte ptr [bx+si],al 
1C59    00 00                     add         byte ptr [bx+si],al 
1C5B    00 00                     add         byte ptr [bx+si],al 
1C5D    00 00                     add         byte ptr [bx+si],al 
1C5F    00 00                     add         byte ptr [bx+si],al 
1C61    00 00                     add         byte ptr [bx+si],al 
1C63    00 00                     add         byte ptr [bx+si],al 
1C65    00 00                     add         byte ptr [bx+si],al 
1C67    00 00                     add         byte ptr [bx+si],al 
1C69    00 00                     add         byte ptr [bx+si],al 
1C6B    00 00                     add         byte ptr [bx+si],al 
1C6D    00 00                     add         byte ptr [bx+si],al 
1C6F    00 00                     add         byte ptr [bx+si],al 
1C71    00 00                     add         byte ptr [bx+si],al 
1C73    00 00                     add         byte ptr [bx+si],al 
1C75    00 00                     add         byte ptr [bx+si],al 
1C77    00 00                     add         byte ptr [bx+si],al 
1C79    00 00                     add         byte ptr [bx+si],al 
1C7B    00 00                     add         byte ptr [bx+si],al 
1C7D    00 00                     add         byte ptr [bx+si],al 
1C7F    00 00                     add         byte ptr [bx+si],al 
1C81    00 00                     add         byte ptr [bx+si],al 
1C83    00 00                     add         byte ptr [bx+si],al 
1C85    00 00                     add         byte ptr [bx+si],al 
1C87    00 00                     add         byte ptr [bx+si],al 
1C89    00 00                     add         byte ptr [bx+si],al 
1C8B    00 00                     add         byte ptr [bx+si],al 
1C8D    00 00                     add         byte ptr [bx+si],al 
1C8F    00 00                     add         byte ptr [bx+si],al 
1C91    00 00                     add         byte ptr [bx+si],al 
1C93    00 00                     add         byte ptr [bx+si],al 
1C95    00 00                     add         byte ptr [bx+si],al 
1C97    00 00                     add         byte ptr [bx+si],al 
1C99    00 00                     add         byte ptr [bx+si],al 
1C9B    00 00                     add         byte ptr [bx+si],al 
1C9D    00 00                     add         byte ptr [bx+si],al 
1C9F    00 00                     add         byte ptr [bx+si],al 
1CA1    00 00                     add         byte ptr [bx+si],al 
1CA3    00 00                     add         byte ptr [bx+si],al 
1CA5    00 00                     add         byte ptr [bx+si],al 
1CA7    00 00                     add         byte ptr [bx+si],al 
1CA9    00 00                     add         byte ptr [bx+si],al 
1CAB    00 00                     add         byte ptr [bx+si],al 
1CAD    00 00                     add         byte ptr [bx+si],al 
1CAF    00 00                     add         byte ptr [bx+si],al 
1CB1    00 00                     add         byte ptr [bx+si],al 
1CB3    00 00                     add         byte ptr [bx+si],al 
1CB5    00 00                     add         byte ptr [bx+si],al 
1CB7    00 00                     add         byte ptr [bx+si],al 
1CB9    00 00                     add         byte ptr [bx+si],al 
1CBB    00 00                     add         byte ptr [bx+si],al 
1CBD    00 00                     add         byte ptr [bx+si],al 
1CBF    00 00                     add         byte ptr [bx+si],al 
1CC1    00 00                     add         byte ptr [bx+si],al 
1CC3    00 00                     add         byte ptr [bx+si],al 
1CC5    00 00                     add         byte ptr [bx+si],al 
1CC7    00 00                     add         byte ptr [bx+si],al 
1CC9    00 00                     add         byte ptr [bx+si],al 
1CCB    00 00                     add         byte ptr [bx+si],al 
1CCD    00 00                     add         byte ptr [bx+si],al 
1CCF    00 00                     add         byte ptr [bx+si],al 
1CD1    00 00                     add         byte ptr [bx+si],al 
1CD3    00 00                     add         byte ptr [bx+si],al 
1CD5    00 00                     add         byte ptr [bx+si],al 
1CD7    00 00                     add         byte ptr [bx+si],al 
1CD9    00 00                     add         byte ptr [bx+si],al 
1CDB    00 00                     add         byte ptr [bx+si],al 
1CDD    00 00                     add         byte ptr [bx+si],al 
1CDF    00 00                     add         byte ptr [bx+si],al 
1CE1    00 00                     add         byte ptr [bx+si],al 
1CE3    00 00                     add         byte ptr [bx+si],al 
1CE5    00 00                     add         byte ptr [bx+si],al 
1CE7    00 00                     add         byte ptr [bx+si],al 
1CE9    00 00                     add         byte ptr [bx+si],al 
1CEB    00 00                     add         byte ptr [bx+si],al 
1CED    00 00                     add         byte ptr [bx+si],al 
1CEF    00 00                     add         byte ptr [bx+si],al 
1CF1    00 00                     add         byte ptr [bx+si],al 
1CF3    00 00                     add         byte ptr [bx+si],al 
1CF5    00 00                     add         byte ptr [bx+si],al 
1CF7    00 00                     add         byte ptr [bx+si],al 
1CF9    00 00                     add         byte ptr [bx+si],al 
1CFB    00 00                     add         byte ptr [bx+si],al 
1CFD    00 00                     add         byte ptr [bx+si],al 
1CFF    00 00                     add         byte ptr [bx+si],al 
1D01    00 00                     add         byte ptr [bx+si],al 
1D03    00 00                     add         byte ptr [bx+si],al 
1D05    00 00                     add         byte ptr [bx+si],al 
1D07    00 00                     add         byte ptr [bx+si],al 
1D09    00 00                     add         byte ptr [bx+si],al 
1D0B    00 00                     add         byte ptr [bx+si],al 
1D0D    00 00                     add         byte ptr [bx+si],al 
1D0F    00 00                     add         byte ptr [bx+si],al 
1D11    00 00                     add         byte ptr [bx+si],al 
1D13    00 00                     add         byte ptr [bx+si],al 
1D15    00 00                     add         byte ptr [bx+si],al 
1D17    00 00                     add         byte ptr [bx+si],al 
1D19    00 00                     add         byte ptr [bx+si],al 
1D1B    00 00                     add         byte ptr [bx+si],al 
1D1D    00 00                     add         byte ptr [bx+si],al 
1D1F    00 00                     add         byte ptr [bx+si],al 
1D21    00 00                     add         byte ptr [bx+si],al 
1D23    00 00                     add         byte ptr [bx+si],al 
1D25    00 00                     add         byte ptr [bx+si],al 
1D27    00 00                     add         byte ptr [bx+si],al 
1D29    00 00                     add         byte ptr [bx+si],al 
1D2B    00 00                     add         byte ptr [bx+si],al 
1D2D    00 00                     add         byte ptr [bx+si],al 
1D2F    00 00                     add         byte ptr [bx+si],al 
1D31    00 00                     add         byte ptr [bx+si],al 
1D33    00 00                     add         byte ptr [bx+si],al 
1D35    00 00                     add         byte ptr [bx+si],al 
1D37    00 00                     add         byte ptr [bx+si],al 
1D39    00 00                     add         byte ptr [bx+si],al 
1D3B    00 00                     add         byte ptr [bx+si],al 
1D3D    00 00                     add         byte ptr [bx+si],al 
1D3F    00 00                     add         byte ptr [bx+si],al 
1D41    00 00                     add         byte ptr [bx+si],al 
1D43    00 00                     add         byte ptr [bx+si],al 
1D45    00 00                     add         byte ptr [bx+si],al 
1D47    00 00                     add         byte ptr [bx+si],al 
1D49    00 00                     add         byte ptr [bx+si],al 
1D4B    00 00                     add         byte ptr [bx+si],al 
1D4D    00 00                     add         byte ptr [bx+si],al 
1D4F    00 00                     add         byte ptr [bx+si],al 
1D51    00 00                     add         byte ptr [bx+si],al 
1D53    00 00                     add         byte ptr [bx+si],al 
1D55    00 00                     add         byte ptr [bx+si],al 
1D57    00 00                     add         byte ptr [bx+si],al 
1D59    00 00                     add         byte ptr [bx+si],al 
1D5B    00 00                     add         byte ptr [bx+si],al 
1D5D    00 00                     add         byte ptr [bx+si],al 
1D5F    00 00                     add         byte ptr [bx+si],al 
1D61    00 00                     add         byte ptr [bx+si],al 
1D63    00 00                     add         byte ptr [bx+si],al 
1D65    00 00                     add         byte ptr [bx+si],al 
1D67    00 00                     add         byte ptr [bx+si],al 
1D69    00 00                     add         byte ptr [bx+si],al 
1D6B    00 00                     add         byte ptr [bx+si],al 
1D6D    00 00                     add         byte ptr [bx+si],al 
1D6F    00 00                     add         byte ptr [bx+si],al 
1D71    00 00                     add         byte ptr [bx+si],al 
1D73    00 00                     add         byte ptr [bx+si],al 
1D75    00 00                     add         byte ptr [bx+si],al 
1D77    00 00                     add         byte ptr [bx+si],al 
1D79    00 00                     add         byte ptr [bx+si],al 
1D7B    00 00                     add         byte ptr [bx+si],al 
1D7D    00 00                     add         byte ptr [bx+si],al 
1D7F    00 00                     add         byte ptr [bx+si],al 
1D81    00 00                     add         byte ptr [bx+si],al 
1D83    00 00                     add         byte ptr [bx+si],al 
1D85    00 00                     add         byte ptr [bx+si],al 
1D87    00 00                     add         byte ptr [bx+si],al 
1D89    00 00                     add         byte ptr [bx+si],al 
1D8B    00 00                     add         byte ptr [bx+si],al 
1D8D    00 00                     add         byte ptr [bx+si],al 
1D8F    00 00                     add         byte ptr [bx+si],al 
1D91    00 00                     add         byte ptr [bx+si],al 
1D93    00 00                     add         byte ptr [bx+si],al 
1D95    00 00                     add         byte ptr [bx+si],al 
1D97    00 00                     add         byte ptr [bx+si],al 
1D99    00 00                     add         byte ptr [bx+si],al 
1D9B    00 00                     add         byte ptr [bx+si],al 
1D9D    00 00                     add         byte ptr [bx+si],al 
1D9F    00 00                     add         byte ptr [bx+si],al 
1DA1    00 00                     add         byte ptr [bx+si],al 
1DA3    00 00                     add         byte ptr [bx+si],al 
1DA5    00 00                     add         byte ptr [bx+si],al 
1DA7    00 00                     add         byte ptr [bx+si],al 
1DA9    00 00                     add         byte ptr [bx+si],al 
1DAB    00 00                     add         byte ptr [bx+si],al 
1DAD    00 00                     add         byte ptr [bx+si],al 
1DAF    00 00                     add         byte ptr [bx+si],al 
1DB1    00 00                     add         byte ptr [bx+si],al 
1DB3    00 00                     add         byte ptr [bx+si],al 
1DB5    00 00                     add         byte ptr [bx+si],al 
1DB7    00 00                     add         byte ptr [bx+si],al 
1DB9    00 00                     add         byte ptr [bx+si],al 
1DBB    00 00                     add         byte ptr [bx+si],al 
1DBD    00 00                     add         byte ptr [bx+si],al 
1DBF    00 00                     add         byte ptr [bx+si],al 
1DC1    00 00                     add         byte ptr [bx+si],al 
1DC3    00 00                     add         byte ptr [bx+si],al 
1DC5    00 00                     add         byte ptr [bx+si],al 
1DC7    00 00                     add         byte ptr [bx+si],al 
1DC9    00 00                     add         byte ptr [bx+si],al 
1DCB    00 00                     add         byte ptr [bx+si],al 
1DCD    00 00                     add         byte ptr [bx+si],al 
1DCF    00 00                     add         byte ptr [bx+si],al 
1DD1    00 00                     add         byte ptr [bx+si],al 
1DD3    00 00                     add         byte ptr [bx+si],al 
1DD5    00 00                     add         byte ptr [bx+si],al 
1DD7    00 00                     add         byte ptr [bx+si],al 
1DD9    00 00                     add         byte ptr [bx+si],al 
1DDB    00 00                     add         byte ptr [bx+si],al 
1DDD    00 00                     add         byte ptr [bx+si],al 
1DDF    00 00                     add         byte ptr [bx+si],al 
1DE1    00 00                     add         byte ptr [bx+si],al 
1DE3    00 00                     add         byte ptr [bx+si],al 
1DE5    00 00                     add         byte ptr [bx+si],al 
1DE7    00 00                     add         byte ptr [bx+si],al 
1DE9    00 00                     add         byte ptr [bx+si],al 
1DEB    00 00                     add         byte ptr [bx+si],al 
1DED    00 00                     add         byte ptr [bx+si],al 
1DEF    00 00                     add         byte ptr [bx+si],al 
1DF1    00 00                     add         byte ptr [bx+si],al 
1DF3    00 00                     add         byte ptr [bx+si],al 
1DF5    00 00                     add         byte ptr [bx+si],al 
1DF7    00 00                     add         byte ptr [bx+si],al 
1DF9    00 00                     add         byte ptr [bx+si],al 
1DFB    00 00                     add         byte ptr [bx+si],al 
1DFD    00 00                     add         byte ptr [bx+si],al 
1DFF    00 00                     add         byte ptr [bx+si],al 
1E01    00 00                     add         byte ptr [bx+si],al 
1E03    00 00                     add         byte ptr [bx+si],al 
1E05    00 00                     add         byte ptr [bx+si],al 
1E07    00 00                     add         byte ptr [bx+si],al 
1E09    00 00                     add         byte ptr [bx+si],al 
1E0B    00 00                     add         byte ptr [bx+si],al 
1E0D    00 00                     add         byte ptr [bx+si],al 
1E0F    00 00                     add         byte ptr [bx+si],al 
1E11    00 00                     add         byte ptr [bx+si],al 
1E13    00 00                     add         byte ptr [bx+si],al 
1E15    00 00                     add         byte ptr [bx+si],al 
1E17    00 00                     add         byte ptr [bx+si],al 
1E19    00 00                     add         byte ptr [bx+si],al 
1E1B    00 00                     add         byte ptr [bx+si],al 
1E1D    00 00                     add         byte ptr [bx+si],al 
1E1F    00 00                     add         byte ptr [bx+si],al 
1E21    00 00                     add         byte ptr [bx+si],al 
1E23    00 00                     add         byte ptr [bx+si],al 
1E25    00 00                     add         byte ptr [bx+si],al 
1E27    00 00                     add         byte ptr [bx+si],al 
1E29    00 00                     add         byte ptr [bx+si],al 
1E2B    00 00                     add         byte ptr [bx+si],al 
1E2D    00 00                     add         byte ptr [bx+si],al 
1E2F    00 00                     add         byte ptr [bx+si],al 
1E31    00 00                     add         byte ptr [bx+si],al 
1E33    00 00                     add         byte ptr [bx+si],al 
1E35    00 00                     add         byte ptr [bx+si],al 
1E37    00 00                     add         byte ptr [bx+si],al 
1E39    00 00                     add         byte ptr [bx+si],al 
1E3B    00 00                     add         byte ptr [bx+si],al 
1E3D    00 00                     add         byte ptr [bx+si],al 
1E3F    00 00                     add         byte ptr [bx+si],al 
1E41    00 00                     add         byte ptr [bx+si],al 
1E43    00 00                     add         byte ptr [bx+si],al 
1E45    00 00                     add         byte ptr [bx+si],al 
1E47    00 00                     add         byte ptr [bx+si],al 
1E49    00 00                     add         byte ptr [bx+si],al 
1E4B    00 00                     add         byte ptr [bx+si],al 
1E4D    00 00                     add         byte ptr [bx+si],al 
1E4F    00 00                     add         byte ptr [bx+si],al 
1E51    00 00                     add         byte ptr [bx+si],al 
1E53    00 00                     add         byte ptr [bx+si],al 
1E55    00 00                     add         byte ptr [bx+si],al 
1E57    00 00                     add         byte ptr [bx+si],al 
1E59    00 00                     add         byte ptr [bx+si],al 
1E5B    00 00                     add         byte ptr [bx+si],al 
1E5D    00 00                     add         byte ptr [bx+si],al 
1E5F    00 00                     add         byte ptr [bx+si],al 
1E61    00 00                     add         byte ptr [bx+si],al 
1E63    00 00                     add         byte ptr [bx+si],al 
1E65    00 00                     add         byte ptr [bx+si],al 
1E67    00 00                     add         byte ptr [bx+si],al 
1E69    00 00                     add         byte ptr [bx+si],al 
1E6B    00 00                     add         byte ptr [bx+si],al 
1E6D    00                                              .
1E6E                          L$46:
1E6E    1E                        push        ds 
1E6F    53 55 56 57                                     DD	ds:[0x5553]
1E73    B8 00 F0                  mov         ax,0xf000 
1E76    8E D8                     mov         ds,ax 
1E78    52                        push        dx 
1E79    51                        push        cx 
1E7A    50                        push        ax 
1E7B    E8 00 00                  call        _int1a_function 
1E7E    58                        pop         ax 
1E7F    59                        pop         cx 
1E80    5A                        pop         dx 
1E81    5F                        pop         di 
1E82    5E                        pop         si 
1E83    5D                        pop         bp 
1E84    5B                        pop         bx 
1E85    1F                        pop         ds 
1E86    CF                        iret        
1E87                          L$47:
1E87    CF                        iret        
1E88    00 00                     add         byte ptr [bx+si],al 
1E8A    00 00                     add         byte ptr [bx+si],al 
1E8C    00 00                     add         byte ptr [bx+si],al 
1E8E    00 00                     add         byte ptr [bx+si],al 
1E90    00 00                     add         byte ptr [bx+si],al 
1E92    00 00                     add         byte ptr [bx+si],al 
1E94    00 00                     add         byte ptr [bx+si],al 
1E96    00 00                     add         byte ptr [bx+si],al 
1E98    00 00                     add         byte ptr [bx+si],al 
1E9A    00 00                     add         byte ptr [bx+si],al 
1E9C    00 00                     add         byte ptr [bx+si],al 
1E9E    00 00                     add         byte ptr [bx+si],al 
1EA0    00 00                     add         byte ptr [bx+si],al 
1EA2    00 00                     add         byte ptr [bx+si],al 
1EA4    00                                              .
1EA5                          L$48:
1EA5    FB                        sti         
1EA6    50                        push        ax 
1EA7    53                        push        bx 
1EA8    1E                        push        ds 
1EA9    33 C0                     xor         ax,ax 
1EAB    8E D8                     mov         ds,ax 
1EAD    A1 6C 04                  mov         ax,word ptr ds:[0x46c] 
1EB0    8B 1E 6E 04               mov         bx,word ptr ds:[0x46e] 
1EB4    40                        inc         ax 
1EB5    75 01                     jne         L$49 
1EB7    43                        inc         bx 
1EB8                          L$49:
1EB8    53                        push        bx 
1EB9    83 EB 18                  sub         bx,0x0018 
1EBC    75 0B                     jne         L$51 
1EBE    3D B0 00                  cmp         ax,0x00b0 
1EC1    72 05                     jb          L$50 
1EC3    7D 04                     jge         L$51 
1EC5    43                        inc         bx 
1EC6    EB 01                     jmp         L$51 
1EC8                          L$50:
1EC8    4B                        dec         bx 
1EC9                          L$51:
1EC9    5B                        pop         bx 
1ECA    72 08                     jb          L$52 
1ECC    33 C0                     xor         ax,ax 
1ECE    33 DB                     xor         bx,bx 
1ED0    FE 06 70 04               inc         byte ptr ds:[0x470] 
1ED4                          L$52:
1ED4    A3 6C 04                  mov         word ptr ds:[0x46c],ax 
1ED7    89 1E 6E 04               mov         word ptr ds:[0x46e],bx 
1EDB    CD 1C                     int         0x1c 
1EDD    FA                        cli         
1EDE    1F                        pop         ds 
1EDF    5B                        pop         bx 
1EE0    58                        pop         ax 
1EE1    CF                        iret        
1EE2    00 00                     add         byte ptr [bx+si],al 
1EE4    00 00                     add         byte ptr [bx+si],al 
1EE6    00 00                     add         byte ptr [bx+si],al 
1EE8    00 00                     add         byte ptr [bx+si],al 
1EEA    00 00                     add         byte ptr [bx+si],al 
1EEC    00 00                     add         byte ptr [bx+si],al 
1EEE    00 00                     add         byte ptr [bx+si],al 
1EF0    00 00                     add         byte ptr [bx+si],al 
1EF2    00 00                     add         byte ptr [bx+si],al 
1EF4    00 00                     add         byte ptr [bx+si],al 
1EF6    00 00                     add         byte ptr [bx+si],al 
1EF8    00 00                     add         byte ptr [bx+si],al 
1EFA    00 00                     add         byte ptr [bx+si],al 
1EFC    00 00                     add         byte ptr [bx+si],al 
1EFE    00 00                     add         byte ptr [bx+si],al 
1F00    28 63 29 20 32 30 30 39 2C 20 32 30 31 30 20 5A (c) 2009, 2010 Z
1F10    65 75 73 20 47 6F 6D 65 7A 20 4D 61 72 6D 6F 6C eus Gomez Marmol
1F20    65 6A 6F 20 61 6E 64 20 28 63 29 20 32 30 30 32 ejo and (c) 2002
1F30    20 4D 61 6E 64 72 61 6B 65 53 6F 66 74 20 53 2E  MandrakeSoft S.
1F40    41 2E                                           A.
1F42    00 00                     add         byte ptr [bx+si],al 
1F44    00 00                     add         byte ptr [bx+si],al 
1F46    00 00                     add         byte ptr [bx+si],al 
1F48    00 00                     add         byte ptr [bx+si],al 
1F4A    00 00                     add         byte ptr [bx+si],al 
1F4C    00 00                     add         byte ptr [bx+si],al 
1F4E    00 00                     add         byte ptr [bx+si],al 
1F50    00 00                     add         byte ptr [bx+si],al 
1F52    00                                              .
1F53                          L$53:
1F53    CF                        iret        
1F54    00 00                     add         byte ptr [bx+si],al 
1F56    00 00                     add         byte ptr [bx+si],al 
1F58    00 00                     add         byte ptr [bx+si],al 
1F5A    00 00                     add         byte ptr [bx+si],al 
1F5C    00 00                     add         byte ptr [bx+si],al 
1F5E    00 00                     add         byte ptr [bx+si],al 
1F60    00 00                     add         byte ptr [bx+si],al 
1F62    00 00                     add         byte ptr [bx+si],al 
1F64    00 00                     add         byte ptr [bx+si],al 
1F66    00 00                     add         byte ptr [bx+si],al 
1F68    00 00                     add         byte ptr [bx+si],al 
1F6A    00 00                     add         byte ptr [bx+si],al 
1F6C    00 00                     add         byte ptr [bx+si],al 
1F6E    00 00                     add         byte ptr [bx+si],al 
1F70    00 00                     add         byte ptr [bx+si],al 
1F72    00 00                     add         byte ptr [bx+si],al 
1F74    00 00                     add         byte ptr [bx+si],al 
1F76    00 00                     add         byte ptr [bx+si],al 
1F78    00 00                     add         byte ptr [bx+si],al 
1F7A    00 00                     add         byte ptr [bx+si],al 
1F7C    00 00                     add         byte ptr [bx+si],al 
1F7E    00 00                     add         byte ptr [bx+si],al 
1F80    00 00                     add         byte ptr [bx+si],al 
1F82    00 00                     add         byte ptr [bx+si],al 
1F84    00 00                     add         byte ptr [bx+si],al 
1F86    00 00                     add         byte ptr [bx+si],al 
1F88    00 00                     add         byte ptr [bx+si],al 
1F8A    00 00                     add         byte ptr [bx+si],al 
1F8C    00 00                     add         byte ptr [bx+si],al 
1F8E    00 00                     add         byte ptr [bx+si],al 
1F90    00 00                     add         byte ptr [bx+si],al 
1F92    00 00                     add         byte ptr [bx+si],al 
1F94    00 00                     add         byte ptr [bx+si],al 
1F96    00 00                     add         byte ptr [bx+si],al 
1F98    00 00                     add         byte ptr [bx+si],al 
1F9A    00 00                     add         byte ptr [bx+si],al 
1F9C    00 00                     add         byte ptr [bx+si],al 
1F9E    00 00                     add         byte ptr [bx+si],al 
1FA0    00 00                     add         byte ptr [bx+si],al 
1FA2    00 00                     add         byte ptr [bx+si],al 
1FA4    00 00                     add         byte ptr [bx+si],al 
1FA6    00 00                     add         byte ptr [bx+si],al 
1FA8    00 00                     add         byte ptr [bx+si],al 
1FAA    00 00                     add         byte ptr [bx+si],al 
1FAC    00 00                     add         byte ptr [bx+si],al 
1FAE    00 00                     add         byte ptr [bx+si],al 
1FB0    00 00                     add         byte ptr [bx+si],al 
1FB2    00 00                     add         byte ptr [bx+si],al 
1FB4    00 00                     add         byte ptr [bx+si],al 
1FB6    00 00                     add         byte ptr [bx+si],al 
1FB8    00 00                     add         byte ptr [bx+si],al 
1FBA    00 00                     add         byte ptr [bx+si],al 
1FBC    00 00                     add         byte ptr [bx+si],al 
1FBE    00 00                     add         byte ptr [bx+si],al 
1FC0    00 00                     add         byte ptr [bx+si],al 
1FC2    00 00                     add         byte ptr [bx+si],al 
1FC4    00 00                     add         byte ptr [bx+si],al 
1FC6    00 00                     add         byte ptr [bx+si],al 
1FC8    00 00                     add         byte ptr [bx+si],al 
1FCA    00 00                     add         byte ptr [bx+si],al 
1FCC    00 00                     add         byte ptr [bx+si],al 
1FCE    00 00                     add         byte ptr [bx+si],al 
1FD0    00 00                     add         byte ptr [bx+si],al 
1FD2    00 00                     add         byte ptr [bx+si],al 
1FD4    00 00                     add         byte ptr [bx+si],al 
1FD6    00 00                     add         byte ptr [bx+si],al 
1FD8    00 00                     add         byte ptr [bx+si],al 
1FDA    00 00                     add         byte ptr [bx+si],al 
1FDC    00 00                     add         byte ptr [bx+si],al 
1FDE    00 00                     add         byte ptr [bx+si],al 
1FE0    00 00                     add         byte ptr [bx+si],al 
1FE2    00 00                     add         byte ptr [bx+si],al 
1FE4    00 00                     add         byte ptr [bx+si],al 
1FE6    00 00                     add         byte ptr [bx+si],al 
1FE8    00 00                     add         byte ptr [bx+si],al 
1FEA    00 00                     add         byte ptr [bx+si],al 
1FEC    00 00                     add         byte ptr [bx+si],al 
1FEE    00 00                     add         byte ptr [bx+si],al 
1FF0    EA 5B 00 00 00            jmp         L$2 
1FF5    30 34 2F 35 2F 31 30 5C 6E FC 00                04/5/10\n..

Routine Size: 8192 bytes,    Routine Base: _BIOSSEG + 0000

No disassembly errors

